
pdaltmode.elf:     file format elf32-littleriscv
pdaltmode.elf
architecture: riscv:rv32, flags 0x00000112:
EXEC_P, HAS_SYMS, D_PAGED
start address 0x00000000

Program Header:
0x70000003 off    0x00040f17 vaddr 0x00000000 paddr 0x00000000 align 2**0
         filesz 0x0000003a memsz 0x00000000 flags r--
    LOAD off    0x00001000 vaddr 0x00000000 paddr 0x00000000 align 2**12
         filesz 0x00005d8c memsz 0x00005d8c flags r-x
    LOAD off    0x00007000 vaddr 0x20000000 paddr 0x00005d8c align 2**12
         filesz 0x00000034 memsz 0x0000008c flags rw-
    LOAD off    0x00000800 vaddr 0x20004800 paddr 0x20004800 align 2**12
         filesz 0x00000000 memsz 0x00000800 flags rw-

Sections:
Idx Name          Size      VMA       LMA       File off  Algn
  0 .init         00000004  00000000  00000000  00001000  2**1
                  CONTENTS, ALLOC, LOAD, READONLY, CODE
  1 .vector       000000fc  00000004  00000004  00001004  2**1
                  CONTENTS, ALLOC, LOAD, READONLY, CODE
  2 .text         00005c8c  00000100  00000100  00001100  2**2
                  CONTENTS, ALLOC, LOAD, READONLY, CODE
  3 .fini         00000000  00005d8c  00005d8c  00007034  2**0
                  CONTENTS, ALLOC, LOAD, CODE
  4 .dalign       00000000  20000000  20000000  00007034  2**0
                  CONTENTS
  5 .dlalign      00000000  00005d8c  00005d8c  00007034  2**0
                  CONTENTS
  6 .data         00000034  20000000  00005d8c  00007000  2**2
                  CONTENTS, ALLOC, LOAD, DATA
  7 .bss          00000058  20000034  00005dc0  00007034  2**2
                  ALLOC
  8 .stack        00000800  20004800  20004800  00007800  2**0
                  ALLOC
  9 .debug_info   0001a3b2  00000000  00000000  00007034  2**0
                  CONTENTS, READONLY, DEBUGGING, OCTETS
 10 .debug_abbrev 00002be4  00000000  00000000  000213e6  2**0
                  CONTENTS, READONLY, DEBUGGING, OCTETS
 11 .debug_loclists 000056de  00000000  00000000  00023fca  2**0
                  CONTENTS, READONLY, DEBUGGING, OCTETS
 12 .debug_aranges 000009c8  00000000  00000000  000296a8  2**3
                  CONTENTS, READONLY, DEBUGGING, OCTETS
 13 .debug_rnglists 000010c3  00000000  00000000  0002a070  2**0
                  CONTENTS, READONLY, DEBUGGING, OCTETS
 14 .debug_line   00011bec  00000000  00000000  0002b133  2**0
                  CONTENTS, READONLY, DEBUGGING, OCTETS
 15 .debug_str    00003ced  00000000  00000000  0003cd1f  2**0
                  CONTENTS, READONLY, DEBUGGING, OCTETS
 16 .debug_line_str 00000472  00000000  00000000  00040a0c  2**0
                  CONTENTS, READONLY, DEBUGGING, OCTETS
 17 .comment      00000099  00000000  00000000  00040e7e  2**0
                  CONTENTS, READONLY
 18 .riscv.attributes 0000003a  00000000  00000000  00040f17  2**0
                  CONTENTS, READONLY
 19 .debug_frame  000015a4  00000000  00000000  00040f54  2**2
                  CONTENTS, READONLY, DEBUGGING, OCTETS
 20 .debug_loc    00003cad  00000000  00000000  000424f8  2**0
                  CONTENTS, READONLY, DEBUGGING, OCTETS
 21 .debug_ranges 00000888  00000000  00000000  000461a8  2**3
                  CONTENTS, READONLY, DEBUGGING, OCTETS
SYMBOL TABLE:
00000000 l    d  .init	00000000 .init
00000004 l    d  .vector	00000000 .vector
00000100 l    d  .text	00000000 .text
00005d8c l    d  .fini	00000000 .fini
20000000 l    d  .dalign	00000000 .dalign
00005d8c l    d  .dlalign	00000000 .dlalign
20000000 l    d  .data	00000000 .data
20000034 l    d  .bss	00000000 .bss
20004800 l    d  .stack	00000000 .stack
00000000 l    d  .debug_info	00000000 .debug_info
00000000 l    d  .debug_abbrev	00000000 .debug_abbrev
00000000 l    d  .debug_loclists	00000000 .debug_loclists
00000000 l    d  .debug_aranges	00000000 .debug_aranges
00000000 l    d  .debug_rnglists	00000000 .debug_rnglists
00000000 l    d  .debug_line	00000000 .debug_line
00000000 l    d  .debug_str	00000000 .debug_str
00000000 l    d  .debug_line_str	00000000 .debug_line_str
00000000 l    d  .comment	00000000 .comment
00000000 l    d  .riscv.attributes	00000000 .riscv.attributes
00000000 l    d  .debug_frame	00000000 .debug_frame
00000000 l    d  .debug_loc	00000000 .debug_loc
00000000 l    d  .debug_ranges	00000000 .debug_ranges
00000000 l    df *ABS*	00000000 startup_ch32x035.o
00000004 l       .vector	00000000 _vector_base
00000000 l    df *ABS*	00000000 save-restore.o
00000160 l     F .text	000000aa PD_Send
0000020a l     F .text	00000024 __assert
0000022e l     F .text	000000aa PD_Test_DP_S
000002d8 l     F .text	00000062 IIC_Start
0000033a l     F .text	00000062 IIC_SendByte
0000039c l     F .text	00000064 IIC_WaitAck
00000400 l     F .text	00000462 IIC_ReadRegI.constprop.0
00000862 l     F .text	00000464 IIC_ReadReg.constprop.2.isra.0
00000cc6 l     F .text	00000458 IIC_ReadReg.constprop.1.isra.0
0000111e l     F .text	0000046a IIC_ReadReg.constprop.0.isra.0
00001588 l     F .text	00000156 IIC_ReadReg.isra.0
000016de l     F .text	0000036e IIC_WriteRegI.isra.0
00001a4c l     F .text	00000024 GPIO_OUT_INIT
00001a70 l     F .text	0000007c WS2812_SetColor
00001aec l     F .text	0000009e PD_PHY_Reset
20000038 l     O .bss	00000004 TIM1_CNT
00001b8a l     F .text	000000c6 PD_Listen_Default
00001c50 l     F .text	000000ca PD_Send_Retry
00001d1a l     F .text	000000c6 PD_Send_Retry_Rst.part.0
00001de0 l     F .text	00000128 PD_Listen_Ready
00001f08 l     F .text	00000308 PD_Delay
00002210 l     F .text	00000160 PD_SendRecv_VDM.constprop.0
00005be4 l     O .text	000001a0 reason
20000034 l     O .bss	00000004 USBPD_FSM
20000068 l     O .bss	00000022 PD_Rx_Buf
20000044 l     O .bss	00000022 PD_Tx_Buf
20000030 l     O .data	00000004 SRCCAP_5V1A5
00000000 l    df *ABS*	00000000 system_ch32x035.c
00000000 l    df *ABS*	00000000 ch32x035_adc.c
00000000 l    df *ABS*	00000000 ch32x035_dbgmcu.c
00000000 l    df *ABS*	00000000 ch32x035_exti.c
00000000 l    df *ABS*	00000000 ch32x035_gpio.c
00000000 l    df *ABS*	00000000 ch32x035_misc.c
00000000 l    df *ABS*	00000000 ch32x035_opa.c
00000000 l    df *ABS*	00000000 ch32x035_rcc.c
20000010 l     O .data	00000010 APBAHBPrescTable
00000000 l    df *ABS*	00000000 ch32x035_tim.c
00000000 l    df *ABS*	00000000 ch32x035_usart.c
00000000 l    df *ABS*	00000000 debug.c
20000040 l     O .bss	00000002 p_ms
20000042 l     O .bss	00000001 p_us
00000000 l    df *ABS*	00000000 core_riscv.c
00000000 l    df *ABS*	00000000 wchprintf.c
00000000 l    df *ABS*	00000000 lib_a-memcpy.o
00004e2c  w    F .text	00000004 printDouble
00004e30  w    F .text	0000031e print
0000514e  w    F .text	00000024 printf
20000820 g       .data	00000000 __global_pointer$
00000108 g     F .text	00000028 .hidden __riscv_save_8
000042c6  w      .text	00000000 TIM1_CC_IRQHandler
000042c6  w      .text	00000000 TIM2_UP_IRQHandler
00002380 g     F .text	00000088 HardFault_Handler
20000024 g     O .data	00000004 CFGHR_tmpA
00004d36  w    F .text	000000f2 printInt
0000249a g     F .text	000000e2 USBPD_IRQHandler
00000154 g     F .text	0000000c .hidden __riscv_restore_3
000042c6  w      .text	00000000 SysTick_Handler
00004756 g     F .text	00000054 NVIC_Init
000042c6  w      .text	00000000 PVD_IRQHandler
00000140 g     F .text	00000020 .hidden __riscv_restore_10
00002370 g     F .text	00000010 NMI_Handler
00000108 g     F .text	00000028 .hidden __riscv_save_11
000044c8 g     F .text	0000000a DBGMCU_GetCHIPID
00004abc g     F .text	0000000a USART_GetFlagStatus
20000034 g       .bss	00000000 _sbss
00000800 g       *ABS*	00000000 __stack_size
000044b2 g     F .text	0000000a ADC_GetFlagStatus
00004b5c g     F .text	00000060 USART_Printf_Init
000042c6  w      .text	00000000 EXTI25_16_IRQHandler
000042c6  w      .text	00000000 USBFS_IRQHandler
00000154 g     F .text	0000000c .hidden __riscv_restore_2
000051bc g     F .text	0000013c memcpy
000043ca g     F .text	00000010 ADC_Cmd
00004e28  w    F .text	00000004 printLongLongInt
000049bc g     F .text	00000018 TIM_Cmd
00005172 g     F .text	0000004a puts
20000020 g     O .data	00000004 SystemCoreClock
00000004 g       .init	00000000 _einit
00004a02 g     F .text	0000000c TIM_ClearITPendingBit
0000490c g     F .text	0000001e RCC_APB2PeriphClockCmd
00000100 g     F .text	00000030 .hidden __riscv_save_12
000044bc g     F .text	0000000c ADC_CLKConfig
00004564 g     F .text	0000018e GPIO_Init
000042c6  w      .text	00000000 Break_Point_Handler
000042c6  w      .text	00000000 TIM2_TRG_COM_IRQHandler
00000140 g     F .text	00000020 .hidden __riscv_restore_11
000042c6  w      .text	00000000 TIM2_CC_IRQHandler
2000003c g     O .bss	00000004 NVIC_Priority_Group
000042c6  w      .text	00000000 SPI1_IRQHandler
00004a9e g     F .text	00000016 USART_Cmd
00000130 g     F .text	0000000c .hidden __riscv_save_1
00000154 g     F .text	0000000c .hidden __riscv_restore_0
000042c6  w      .text	00000000 AWU_IRQHandler
000042c6  w      .text	00000000 EXTI7_0_IRQHandler
00000116 g     F .text	0000001a .hidden __riscv_save_7
00004888 g     F .text	00000028 OPA_Cmd
0000492a g     F .text	0000001e RCC_APB1PeriphClockCmd
000042c6  w      .text	00000000 Ecall_M_Mode_Handler
20004800 g       .stack	00000000 _heap_end
00004af0 g     F .text	00000036 Delay_Us
0000014a g     F .text	00000016 .hidden __riscv_restore_5
000048ee g     F .text	0000001e RCC_AHBPeriphClockCmd
000042c6  w      .text	00000000 DMA1_Channel4_IRQHandler
000043f2 g     F .text	000000b8 ADC_RegularChannelConfig
000042c6  w      .text	00000000 ADC1_IRQHandler
000042c6  w      .text	00000000 TIM2_BRK_IRQHandler
000044aa g     F .text	00000008 ADC_GetConversionValue
0000014a g     F .text	00000016 .hidden __riscv_restore_6
000042c6  w      .text	00000000 USART3_IRQHandler
0000455a g     F .text	0000000a EXTI_ClearITPendingBit
2000008c g       .bss	00000000 _ebss
000042c6  w      .text	00000000 DMA1_Channel7_IRQHandler
000043da g     F .text	00000018 ADC_SoftwareStartConvCmd
00004ac6 g     F .text	0000002a Delay_Init
000042c6  w      .text	00000000 USBPDWakeUp_IRQHandler
00002408 g     F .text	0000005a EXTI15_8_IRQHandler
000046fc g     F .text	0000000e GPIO_SetBits
00000108 g     F .text	00000028 .hidden __riscv_save_9
0000470e g     F .text	00000014 GPIO_WriteBit
00000116 g     F .text	0000001a .hidden __riscv_save_4
000042c6  w      .text	00000000 I2C1_EV_IRQHandler
000042c6  w      .text	00000000 USART4_IRQHandler
000049ea g     F .text	00000018 TIM_GetITStatus
000048b0 g     F .text	0000003e RCC_GetClocksFreq
000042c6  w      .text	00000000 DMA1_Channel6_IRQHandler
00004a0e g     F .text	00000090 USART_Init
000042c6  w      .text	00000000 TIM3_IRQHandler
00000130 g     F .text	0000000c .hidden __riscv_save_3
000042c6  w      .text	00000000 TIM1_TRG_COM_IRQHandler
2000002c g     O .data	00000004 CFGHR_tmpC
000042c6  w      .text	00000000 DMA1_Channel1_IRQHandler
00000000 g       .init	00000000 _start
20000000 g     O .data	00000010 AHBPrescTable
00004c56  w    F .text	000000e0 prints
000049d4 g     F .text	00000012 TIM_ITConfig
000044d2 g     F .text	0000006a EXTI_Init
000042c6  w      .text	00000000 DMA1_Channel8_IRQHandler
0000470a g     F .text	00000004 GPIO_ResetBits
00004c00 g     F .text	00000006 __get_MCAUSE
20000000 g       .dalign	00000000 _data_vma
0000b2d1  w      .debug_info	00000000 .hidden iic.c.f7656db2
000042c6  w      .text	00000000 PIOC_IRQHandler
00004722 g     F .text	0000002e GPIO_EXTILineConfig
000047c4 g     F .text	000000c4 OPA_Init
00000108 g     F .text	00000028 .hidden __riscv_save_10
0000014a g     F .text	00000016 .hidden __riscv_restore_4
00004c06 g     F .text	00000006 __get_MTVAL
00000140 g     F .text	00000020 .hidden __riscv_restore_8
00004bfa g     F .text	00000006 __get_MEPC
00000116 g     F .text	0000001a .hidden __riscv_save_6
0000453c g     F .text	0000001e EXTI_GetITStatus
00000140 g     F .text	00000020 .hidden __riscv_restore_9
0000014a g     F .text	00000016 .hidden __riscv_restore_7
0000257c g     F .text	00001cc2 main
0000b668  w      .debug_info	00000000 .hidden main.c.ab49d0c1
000042c6  w      .text	00000000 DMA1_Channel5_IRQHandler
000049e6 g     F .text	00000004 TIM_SetCounter
00004b26 g     F .text	00000036 Delay_Ms
20000028 g     O .data	00000004 CFGHR_tmpB
000047aa g     F .text	0000001a OPA_Unlock
0000423e g     F .text	0000004a SystemInit
00004c0c  w    F .text	0000004a printchar
00000000 g       .init	00000000 _sinit
000042c6  w      .text	00000000 DMA1_Channel3_IRQHandler
00002462 g     F .text	00000038 TIM1_UP_IRQHandler
000042c6  w      .text	00000000 WWDG_IRQHandler
000042c6  w      .text	00000000 Ecall_U_Mode_Handler
20005000 g       .stack	00000000 _eusrstack
00000130 g     F .text	0000000c .hidden __riscv_save_2
000042c6  w      .text	00000000 SW_Handler
0000434e g     F .text	00000026 ADC_DeInit
000042c6  w      .text	00000000 TIM1_BRK_IRQHandler
00004374 g     F .text	00000056 ADC_Init
00004ab4 g     F .text	00000008 USART_SendData
000042c6  w      .text	00000000 OPA_IRQHandler
00000116 g     F .text	0000001a .hidden __riscv_save_5
00004bbc g     F .text	0000003e _write
20000034 g       .data	00000000 _edata
2000008c g       .bss	00000000 _end
00004966 g     F .text	00000056 TIM_TimeBaseInit
00005d8c g       .dlalign	00000000 _data_lma
000042c6  w      .text	00000000 USART2_IRQHandler
00004288 g     F .text	0000003e SystemCoreClockUpdate
000042c6  w      .text	00000000 DMA1_Channel2_IRQHandler
0000013c g     F .text	00000024 .hidden __riscv_restore_12
000042c8  w      .text	00000000 handle_reset
00000130 g     F .text	0000000c .hidden __riscv_save_0
000042c6  w      .text	00000000 FLASH_IRQHandler
000042c6  w      .text	00000000 USBFSWakeUp_IRQHandler
000042c6  w      .text	00000000 USART1_IRQHandler
00004948 g     F .text	0000001e RCC_APB2PeriphResetCmd
0000adc2  w      .debug_info	00000000 .hidden ch32x035_it.c.812d39ba
000042c6  w      .text	00000000 I2C1_ER_IRQHandler
00004750 g     F .text	00000006 NVIC_PriorityGroupConfig
00000154 g     F .text	0000000c .hidden __riscv_restore_1
000046f2 g     F .text	0000000a GPIO_ReadInputDataBit



Disassembly of section .init:

00000000 <_sinit>:
   0:	2c80406f          	j	42c8 <handle_reset>

Disassembly of section .vector:

00000004 <_vector_base>:
	...
   c:	2370                	lbu	a2,6(a4)
   e:	0000                	unimp
  10:	2380                	lbu	s0,0(a5)
  12:	0000                	unimp
  14:	0000                	unimp
  16:	0000                	unimp
  18:	42c6                	lw	t0,80(sp)
	...
  22:	0000                	unimp
  24:	42c6                	lw	t0,80(sp)
  26:	0000                	unimp
  28:	42c6                	lw	t0,80(sp)
	...
  32:	0000                	unimp
  34:	42c6                	lw	t0,80(sp)
  36:	0000                	unimp
  38:	0000                	unimp
  3a:	0000                	unimp
  3c:	42c6                	lw	t0,80(sp)
  3e:	0000                	unimp
  40:	0000                	unimp
  42:	0000                	unimp
  44:	42c6                	lw	t0,80(sp)
  46:	0000                	unimp
  48:	42c6                	lw	t0,80(sp)
  4a:	0000                	unimp
  4c:	42c6                	lw	t0,80(sp)
  4e:	0000                	unimp
  50:	0000                	unimp
  52:	0000                	unimp
  54:	42c6                	lw	t0,80(sp)
  56:	0000                	unimp
  58:	42c6                	lw	t0,80(sp)
  5a:	0000                	unimp
  5c:	42c6                	lw	t0,80(sp)
  5e:	0000                	unimp
  60:	42c6                	lw	t0,80(sp)
  62:	0000                	unimp
  64:	42c6                	lw	t0,80(sp)
  66:	0000                	unimp
  68:	42c6                	lw	t0,80(sp)
  6a:	0000                	unimp
  6c:	42c6                	lw	t0,80(sp)
  6e:	0000                	unimp
  70:	42c6                	lw	t0,80(sp)
  72:	0000                	unimp
  74:	42c6                	lw	t0,80(sp)
  76:	0000                	unimp
  78:	42c6                	lw	t0,80(sp)
  7a:	0000                	unimp
  7c:	42c6                	lw	t0,80(sp)
  7e:	0000                	unimp
  80:	42c6                	lw	t0,80(sp)
  82:	0000                	unimp
  84:	42c6                	lw	t0,80(sp)
  86:	0000                	unimp
  88:	42c6                	lw	t0,80(sp)
  8a:	0000                	unimp
  8c:	42c6                	lw	t0,80(sp)
  8e:	0000                	unimp
  90:	2462                	lhu	s0,14(s0)
  92:	0000                	unimp
  94:	42c6                	lw	t0,80(sp)
  96:	0000                	unimp
  98:	42c6                	lw	t0,80(sp)
  9a:	0000                	unimp
  9c:	42c6                	lw	t0,80(sp)
  9e:	0000                	unimp
  a0:	42c6                	lw	t0,80(sp)
  a2:	0000                	unimp
  a4:	2408                	lbu	a0,8(s0)
  a6:	0000                	unimp
  a8:	42c6                	lw	t0,80(sp)
  aa:	0000                	unimp
  ac:	42c6                	lw	t0,80(sp)
  ae:	0000                	unimp
  b0:	42c6                	lw	t0,80(sp)
  b2:	0000                	unimp
  b4:	42c6                	lw	t0,80(sp)
  b6:	0000                	unimp
  b8:	42c6                	lw	t0,80(sp)
  ba:	0000                	unimp
  bc:	42c6                	lw	t0,80(sp)
  be:	0000                	unimp
  c0:	42c6                	lw	t0,80(sp)
  c2:	0000                	unimp
  c4:	42c6                	lw	t0,80(sp)
  c6:	0000                	unimp
  c8:	249a                	lhu	a4,8(s1)
  ca:	0000                	unimp
  cc:	42c6                	lw	t0,80(sp)
  ce:	0000                	unimp
  d0:	42c6                	lw	t0,80(sp)
  d2:	0000                	unimp
  d4:	42c6                	lw	t0,80(sp)
  d6:	0000                	unimp
  d8:	42c6                	lw	t0,80(sp)
  da:	0000                	unimp
  dc:	42c6                	lw	t0,80(sp)
	...

Disassembly of section .text:

00000100 <__riscv_save_12>:
     100:	7139                	addi	sp,sp,-64
     102:	4301                	li	t1,0
     104:	c66e                	sw	s11,12(sp)
     106:	a019                	j	10c <__riscv_save_10+0x4>

00000108 <__riscv_save_10>:
     108:	7139                	addi	sp,sp,-64
     10a:	5341                	li	t1,-16
     10c:	c86a                	sw	s10,16(sp)
     10e:	ca66                	sw	s9,20(sp)
     110:	cc62                	sw	s8,24(sp)
     112:	ce5e                	sw	s7,28(sp)
     114:	a019                	j	11a <__riscv_save_4+0x4>

00000116 <__riscv_save_4>:
     116:	7139                	addi	sp,sp,-64
     118:	5301                	li	t1,-32
     11a:	d05a                	sw	s6,32(sp)
     11c:	d256                	sw	s5,36(sp)
     11e:	d452                	sw	s4,40(sp)
     120:	d64e                	sw	s3,44(sp)
     122:	d84a                	sw	s2,48(sp)
     124:	da26                	sw	s1,52(sp)
     126:	dc22                	sw	s0,56(sp)
     128:	de06                	sw	ra,60(sp)
     12a:	40610133          	sub	sp,sp,t1
     12e:	8282                	jr	t0

00000130 <__riscv_save_0>:
     130:	1141                	addi	sp,sp,-16
     132:	c04a                	sw	s2,0(sp)
     134:	c226                	sw	s1,4(sp)
     136:	c422                	sw	s0,8(sp)
     138:	c606                	sw	ra,12(sp)
     13a:	8282                	jr	t0

0000013c <__riscv_restore_12>:
     13c:	4db2                	lw	s11,12(sp)
     13e:	0141                	addi	sp,sp,16

00000140 <__riscv_restore_10>:
     140:	4d02                	lw	s10,0(sp)
     142:	4c92                	lw	s9,4(sp)
     144:	4c22                	lw	s8,8(sp)
     146:	4bb2                	lw	s7,12(sp)
     148:	0141                	addi	sp,sp,16

0000014a <__riscv_restore_4>:
     14a:	4b02                	lw	s6,0(sp)
     14c:	4a92                	lw	s5,4(sp)
     14e:	4a22                	lw	s4,8(sp)
     150:	49b2                	lw	s3,12(sp)
     152:	0141                	addi	sp,sp,16

00000154 <__riscv_restore_0>:
     154:	4902                	lw	s2,0(sp)
     156:	4492                	lw	s1,4(sp)
     158:	4422                	lw	s0,8(sp)
     15a:	40b2                	lw	ra,12(sp)
     15c:	0141                	addi	sp,sp,16
     15e:	8082                	ret

00000160 <PD_Send>:
     160:	400277b7          	lui	a5,0x40027
     164:	27da                	lhu	a4,12(a5)
     166:	0ff67613          	zext.b	a2,a2
     16a:	05c2                	slli	a1,a1,0x10
     16c:	01076713          	ori	a4,a4,16
     170:	a7da                	sh	a4,12(a5)
     172:	27fa                	lhu	a4,14(a5)
     174:	81c1                	srli	a1,a1,0x10
     176:	0542                	slli	a0,a0,0x10
     178:	01076713          	ori	a4,a4,16
     17c:	a7fa                	sh	a4,14(a5)
     17e:	b3d0                	sb	a2,5(a5)
     180:	a3ee                	sh	a1,6(a5)
     182:	8141                	srli	a0,a0,0x10
     184:	2b96                	lhu	a3,16(a5)
     186:	ab8a                	sh	a0,16(a5)
     188:	3798                	lbu	a4,9(a5)
     18a:	000784a3          	sb	zero,9(a5) # 40027009 <_eusrstack+0x20022009>
     18e:	02700713          	li	a4,39
     192:	a3ba                	sh	a4,2(a5)
     194:	23d0                	lbu	a2,4(a5)
     196:	06c2                	slli	a3,a3,0x10
     198:	82c1                	srli	a3,a3,0x10
     19a:	00166613          	ori	a2,a2,1
     19e:	a3d0                	sb	a2,4(a5)
     1a0:	23d0                	lbu	a2,4(a5)
     1a2:	40027737          	lui	a4,0x40027
     1a6:	00266613          	ori	a2,a2,2
     1aa:	a3d0                	sb	a2,4(a5)
     1ac:	371c                	lbu	a5,9(a4)
     1ae:	07e2                	slli	a5,a5,0x18
     1b0:	87e1                	srai	a5,a5,0x18
     1b2:	fe07dde3          	bgez	a5,1ac <PD_Send+0x4c>
     1b6:	371c                	lbu	a5,9(a4)
     1b8:	0807e793          	ori	a5,a5,128
     1bc:	b71c                	sb	a5,9(a4)
     1be:	275e                	lhu	a5,12(a4)
     1c0:	07c2                	slli	a5,a5,0x10
     1c2:	83c1                	srli	a5,a5,0x10
     1c4:	9bbd                	andi	a5,a5,-17
     1c6:	07c2                	slli	a5,a5,0x10
     1c8:	83c1                	srli	a5,a5,0x10
     1ca:	a75e                	sh	a5,12(a4)
     1cc:	277e                	lhu	a5,14(a4)
     1ce:	07c2                	slli	a5,a5,0x10
     1d0:	83c1                	srli	a5,a5,0x10
     1d2:	9bbd                	andi	a5,a5,-17
     1d4:	07c2                	slli	a5,a5,0x10
     1d6:	83c1                	srli	a5,a5,0x10
     1d8:	a77e                	sh	a5,14(a4)
     1da:	231e                	lhu	a5,0(a4)
     1dc:	0027e793          	ori	a5,a5,2
     1e0:	a31e                	sh	a5,0(a4)
     1e2:	231e                	lhu	a5,0(a4)
     1e4:	07c2                	slli	a5,a5,0x10
     1e6:	83c1                	srli	a5,a5,0x10
     1e8:	9bf5                	andi	a5,a5,-3
     1ea:	07c2                	slli	a5,a5,0x10
     1ec:	83c1                	srli	a5,a5,0x10
     1ee:	a31e                	sh	a5,0(a4)
     1f0:	235c                	lbu	a5,4(a4)
     1f2:	0fe7f793          	andi	a5,a5,254
     1f6:	a35c                	sb	a5,4(a4)
     1f8:	ab16                	sh	a3,16(a4)
     1fa:	03b00793          	li	a5,59
     1fe:	a33e                	sh	a5,2(a4)
     200:	235c                	lbu	a5,4(a4)
     202:	0027e793          	ori	a5,a5,2
     206:	a35c                	sb	a5,4(a4)
     208:	8082                	ret

0000020a <__assert>:
     20a:	f27ff2ef          	jal	t0,130 <__riscv_save_0>
     20e:	862a                	mv	a2,a0
     210:	6515                	lui	a0,0x5
     212:	31c50513          	addi	a0,a0,796 # 531c <memcpy+0x160>
     216:	739040ef          	jal	ra,514e <printf>
     21a:	e000f737          	lui	a4,0xe000f
     21e:	d1072783          	lw	a5,-752(a4) # e000ed10 <_eusrstack+0xc0009d10>
     222:	9bdd                	andi	a5,a5,-9
     224:	d0f72823          	sw	a5,-752(a4)
     228:	10500073          	wfi
     22c:	bfcd                	j	21e <__assert+0x14>

0000022e <PD_Test_DP_S>:
     22e:	f03ff2ef          	jal	t0,130 <__riscv_save_0>
     232:	4d18                	lw	a4,24(a0)
     234:	87aa                	mv	a5,a0
     236:	6515                	lui	a0,0x5
     238:	2702                	lhu	s0,8(a4)
     23a:	237a                	lhu	a4,6(a4)
     23c:	34450513          	addi	a0,a0,836 # 5344 <memcpy+0x188>
     240:	0442                	slli	s0,s0,0x10
     242:	8c59                	or	s0,s0,a4
     244:	d7c0                	sw	s0,44(a5)
     246:	72d040ef          	jal	ra,5172 <puts>
     24a:	00345593          	srli	a1,s0,0x3
     24e:	6515                	lui	a0,0x5
     250:	8985                	andi	a1,a1,1
     252:	35450513          	addi	a0,a0,852 # 5354 <memcpy+0x198>
     256:	6f9040ef          	jal	ra,514e <printf>
     25a:	6515                	lui	a0,0x5
     25c:	00347593          	andi	a1,s0,3
     260:	36450513          	addi	a0,a0,868 # 5364 <memcpy+0x1a8>
     264:	6eb040ef          	jal	ra,514e <printf>
     268:	00245593          	srli	a1,s0,0x2
     26c:	6515                	lui	a0,0x5
     26e:	8985                	andi	a1,a1,1
     270:	37450513          	addi	a0,a0,884 # 5374 <memcpy+0x1b8>
     274:	6db040ef          	jal	ra,514e <printf>
     278:	00445593          	srli	a1,s0,0x4
     27c:	6515                	lui	a0,0x5
     27e:	8985                	andi	a1,a1,1
     280:	38450513          	addi	a0,a0,900 # 5384 <memcpy+0x1c8>
     284:	6cb040ef          	jal	ra,514e <printf>
     288:	00745593          	srli	a1,s0,0x7
     28c:	6515                	lui	a0,0x5
     28e:	8985                	andi	a1,a1,1
     290:	39850513          	addi	a0,a0,920 # 5398 <memcpy+0x1dc>
     294:	6bb040ef          	jal	ra,514e <printf>
     298:	00845593          	srli	a1,s0,0x8
     29c:	6515                	lui	a0,0x5
     29e:	8985                	andi	a1,a1,1
     2a0:	3a450513          	addi	a0,a0,932 # 53a4 <memcpy+0x1e8>
     2a4:	6ab040ef          	jal	ra,514e <printf>
     2a8:	00545593          	srli	a1,s0,0x5
     2ac:	6515                	lui	a0,0x5
     2ae:	8985                	andi	a1,a1,1
     2b0:	3b050513          	addi	a0,a0,944 # 53b0 <memcpy+0x1f4>
     2b4:	69b040ef          	jal	ra,514e <printf>
     2b8:	00645593          	srli	a1,s0,0x6
     2bc:	6515                	lui	a0,0x5
     2be:	8985                	andi	a1,a1,1
     2c0:	3c050513          	addi	a0,a0,960 # 53c0 <memcpy+0x204>
     2c4:	68b040ef          	jal	ra,514e <printf>
     2c8:	00a47513          	andi	a0,s0,10
     2cc:	1559                	addi	a0,a0,-10
     2ce:	00a03533          	snez	a0,a0
     2d2:	40a00533          	neg	a0,a0
     2d6:	bdbd                	j	154 <__riscv_restore_0>

000002d8 <IIC_Start>:
     2d8:	e59ff2ef          	jal	t0,130 <__riscv_save_0>
     2dc:	40011437          	lui	s0,0x40011
     2e0:	80040513          	addi	a0,s0,-2048 # 40010800 <_eusrstack+0x2000b800>
     2e4:	02000593          	li	a1,32
     2e8:	414040ef          	jal	ra,46fc <GPIO_SetBits>
     2ec:	80040513          	addi	a0,s0,-2048
     2f0:	04000593          	li	a1,64
     2f4:	408040ef          	jal	ra,46fc <GPIO_SetBits>
     2f8:	80042783          	lw	a5,-2048(s0)
     2fc:	ff100737          	lui	a4,0xff100
     300:	177d                	addi	a4,a4,-1 # ff0fffff <_eusrstack+0xdf0fafff>
     302:	8ff9                	and	a5,a5,a4
     304:	00300737          	lui	a4,0x300
     308:	8fd9                	or	a5,a5,a4
     30a:	80f42023          	sw	a5,-2048(s0)
     30e:	80040413          	addi	s0,s0,-2048
     312:	0001                	nop
     314:	0001                	nop
     316:	0001                	nop
     318:	02000593          	li	a1,32
     31c:	8522                	mv	a0,s0
     31e:	3ec040ef          	jal	ra,470a <GPIO_ResetBits>
     322:	0001                	nop
     324:	0001                	nop
     326:	0001                	nop
     328:	04000593          	li	a1,64
     32c:	8522                	mv	a0,s0
     32e:	3dc040ef          	jal	ra,470a <GPIO_ResetBits>
     332:	0001                	nop
     334:	0001                	nop
     336:	0001                	nop
     338:	bd31                	j	154 <__riscv_restore_0>

0000033a <IIC_SendByte>:
     33a:	df7ff2ef          	jal	t0,130 <__riscv_save_0>
     33e:	400114b7          	lui	s1,0x40011
     342:	8004a783          	lw	a5,-2048(s1) # 40010800 <_eusrstack+0x2000b800>
     346:	ff100737          	lui	a4,0xff100
     34a:	177d                	addi	a4,a4,-1 # ff0fffff <_eusrstack+0xdf0fafff>
     34c:	8ff9                	and	a5,a5,a4
     34e:	00300737          	lui	a4,0x300
     352:	8fd9                	or	a5,a5,a4
     354:	80f4a023          	sw	a5,-2048(s1)
     358:	842a                	mv	s0,a0
     35a:	4921                	li	s2,8
     35c:	80048493          	addi	s1,s1,-2048
     360:	00745613          	srli	a2,s0,0x7
     364:	02000593          	li	a1,32
     368:	8526                	mv	a0,s1
     36a:	3a4040ef          	jal	ra,470e <GPIO_WriteBit>
     36e:	0001                	nop
     370:	0001                	nop
     372:	0001                	nop
     374:	04000593          	li	a1,64
     378:	8526                	mv	a0,s1
     37a:	382040ef          	jal	ra,46fc <GPIO_SetBits>
     37e:	0001                	nop
     380:	0001                	nop
     382:	0001                	nop
     384:	04000593          	li	a1,64
     388:	8526                	mv	a0,s1
     38a:	0406                	slli	s0,s0,0x1
     38c:	197d                	addi	s2,s2,-1
     38e:	37c040ef          	jal	ra,470a <GPIO_ResetBits>
     392:	0ff47413          	zext.b	s0,s0
     396:	fc0915e3          	bnez	s2,360 <IIC_SendByte+0x26>
     39a:	bb6d                	j	154 <__riscv_restore_0>

0000039c <IIC_WaitAck>:
     39c:	d95ff2ef          	jal	t0,130 <__riscv_save_0>
     3a0:	40011737          	lui	a4,0x40011
     3a4:	80072783          	lw	a5,-2048(a4) # 40010800 <_eusrstack+0x2000b800>
     3a8:	ff1006b7          	lui	a3,0xff100
     3ac:	16fd                	addi	a3,a3,-1 # ff0fffff <_eusrstack+0xdf0fafff>
     3ae:	8ff5                	and	a5,a5,a3
     3b0:	008006b7          	lui	a3,0x800
     3b4:	8fd5                	or	a5,a5,a3
     3b6:	80070413          	addi	s0,a4,-2048
     3ba:	80f72023          	sw	a5,-2048(a4)
     3be:	0001                	nop
     3c0:	0001                	nop
     3c2:	0001                	nop
     3c4:	04000593          	li	a1,64
     3c8:	8522                	mv	a0,s0
     3ca:	332040ef          	jal	ra,46fc <GPIO_SetBits>
     3ce:	0001                	nop
     3d0:	0001                	nop
     3d2:	0001                	nop
     3d4:	02000593          	li	a1,32
     3d8:	8522                	mv	a0,s0
     3da:	318040ef          	jal	ra,46f2 <GPIO_ReadInputDataBit>
     3de:	84aa                	mv	s1,a0
     3e0:	04000593          	li	a1,64
     3e4:	8522                	mv	a0,s0
     3e6:	324040ef          	jal	ra,470a <GPIO_ResetBits>
     3ea:	0001                	nop
     3ec:	0001                	nop
     3ee:	0001                	nop
     3f0:	02000593          	li	a1,32
     3f4:	8522                	mv	a0,s0
     3f6:	306040ef          	jal	ra,46fc <GPIO_SetBits>
     3fa:	40900533          	neg	a0,s1
     3fe:	bb99                	j	154 <__riscv_restore_0>

00000400 <IIC_ReadRegI.constprop.0>:
     400:	d09ff2ef          	jal	t0,108 <__riscv_save_10>
     404:	400119b7          	lui	s3,0x40011
     408:	80098513          	addi	a0,s3,-2048 # 40010800 <_eusrstack+0x2000b800>
     40c:	02000593          	li	a1,32
     410:	2ec040ef          	jal	ra,46fc <GPIO_SetBits>
     414:	04000593          	li	a1,64
     418:	80098513          	addi	a0,s3,-2048
     41c:	2e0040ef          	jal	ra,46fc <GPIO_SetBits>
     420:	8009a783          	lw	a5,-2048(s3)
     424:	ff100a37          	lui	s4,0xff100
     428:	1a7d                	addi	s4,s4,-1 # ff0fffff <_eusrstack+0xdf0fafff>
     42a:	0147f7b3          	and	a5,a5,s4
     42e:	00300ab7          	lui	s5,0x300
     432:	0157e7b3          	or	a5,a5,s5
     436:	80f9a023          	sw	a5,-2048(s3)
     43a:	80098493          	addi	s1,s3,-2048
     43e:	0001                	nop
     440:	0001                	nop
     442:	0001                	nop
     444:	02000593          	li	a1,32
     448:	8526                	mv	a0,s1
     44a:	2c0040ef          	jal	ra,470a <GPIO_ResetBits>
     44e:	0001                	nop
     450:	0001                	nop
     452:	0001                	nop
     454:	04000593          	li	a1,64
     458:	8526                	mv	a0,s1
     45a:	2b0040ef          	jal	ra,470a <GPIO_ResetBits>
     45e:	0001                	nop
     460:	0001                	nop
     462:	0001                	nop
     464:	8009a783          	lw	a5,-2048(s3)
     468:	4921                	li	s2,8
     46a:	0d000413          	li	s0,208
     46e:	0147f7b3          	and	a5,a5,s4
     472:	0157e7b3          	or	a5,a5,s5
     476:	80f9a023          	sw	a5,-2048(s3)
     47a:	00745613          	srli	a2,s0,0x7
     47e:	02000593          	li	a1,32
     482:	8526                	mv	a0,s1
     484:	28a040ef          	jal	ra,470e <GPIO_WriteBit>
     488:	0001                	nop
     48a:	0001                	nop
     48c:	0001                	nop
     48e:	04000593          	li	a1,64
     492:	8526                	mv	a0,s1
     494:	268040ef          	jal	ra,46fc <GPIO_SetBits>
     498:	0001                	nop
     49a:	0001                	nop
     49c:	0001                	nop
     49e:	04000593          	li	a1,64
     4a2:	8526                	mv	a0,s1
     4a4:	0406                	slli	s0,s0,0x1
     4a6:	197d                	addi	s2,s2,-1
     4a8:	262040ef          	jal	ra,470a <GPIO_ResetBits>
     4ac:	0ff47413          	zext.b	s0,s0
     4b0:	fc0915e3          	bnez	s2,47a <IIC_ReadRegI.constprop.0+0x7a>
     4b4:	8009a783          	lw	a5,-2048(s3)
     4b8:	ff100437          	lui	s0,0xff100
     4bc:	147d                	addi	s0,s0,-1 # ff0fffff <_eusrstack+0xdf0fafff>
     4be:	8fe1                	and	a5,a5,s0
     4c0:	00800737          	lui	a4,0x800
     4c4:	8fd9                	or	a5,a5,a4
     4c6:	80f9a023          	sw	a5,-2048(s3)
     4ca:	80098493          	addi	s1,s3,-2048
     4ce:	0001                	nop
     4d0:	0001                	nop
     4d2:	0001                	nop
     4d4:	04000593          	li	a1,64
     4d8:	8526                	mv	a0,s1
     4da:	222040ef          	jal	ra,46fc <GPIO_SetBits>
     4de:	0001                	nop
     4e0:	0001                	nop
     4e2:	0001                	nop
     4e4:	02000593          	li	a1,32
     4e8:	8526                	mv	a0,s1
     4ea:	208040ef          	jal	ra,46f2 <GPIO_ReadInputDataBit>
     4ee:	892a                	mv	s2,a0
     4f0:	04000593          	li	a1,64
     4f4:	8526                	mv	a0,s1
     4f6:	214040ef          	jal	ra,470a <GPIO_ResetBits>
     4fa:	0001                	nop
     4fc:	0001                	nop
     4fe:	0001                	nop
     500:	02000593          	li	a1,32
     504:	8526                	mv	a0,s1
     506:	1f6040ef          	jal	ra,46fc <GPIO_SetBits>
     50a:	34091a63          	bnez	s2,85e <__stack_size+0x5e>
     50e:	8009a783          	lw	a5,-2048(s3)
     512:	00300737          	lui	a4,0x300
     516:	4921                	li	s2,8
     518:	8fe1                	and	a5,a5,s0
     51a:	8fd9                	or	a5,a5,a4
     51c:	80f9a023          	sw	a5,-2048(s3)
     520:	4419                	li	s0,6
     522:	400119b7          	lui	s3,0x40011
     526:	00745613          	srli	a2,s0,0x7
     52a:	02000593          	li	a1,32
     52e:	8526                	mv	a0,s1
     530:	1de040ef          	jal	ra,470e <GPIO_WriteBit>
     534:	0001                	nop
     536:	0001                	nop
     538:	0001                	nop
     53a:	04000593          	li	a1,64
     53e:	8526                	mv	a0,s1
     540:	1bc040ef          	jal	ra,46fc <GPIO_SetBits>
     544:	0001                	nop
     546:	0001                	nop
     548:	0001                	nop
     54a:	04000593          	li	a1,64
     54e:	8526                	mv	a0,s1
     550:	0406                	slli	s0,s0,0x1
     552:	197d                	addi	s2,s2,-1
     554:	1b6040ef          	jal	ra,470a <GPIO_ResetBits>
     558:	0ff47413          	zext.b	s0,s0
     55c:	fc0915e3          	bnez	s2,526 <IIC_ReadRegI.constprop.0+0x126>
     560:	8009a783          	lw	a5,-2048(s3) # 40010800 <_eusrstack+0x2000b800>
     564:	ff100437          	lui	s0,0xff100
     568:	147d                	addi	s0,s0,-1 # ff0fffff <_eusrstack+0xdf0fafff>
     56a:	8fe1                	and	a5,a5,s0
     56c:	00800737          	lui	a4,0x800
     570:	8fd9                	or	a5,a5,a4
     572:	80f9a023          	sw	a5,-2048(s3)
     576:	80098493          	addi	s1,s3,-2048
     57a:	0001                	nop
     57c:	0001                	nop
     57e:	0001                	nop
     580:	04000593          	li	a1,64
     584:	8526                	mv	a0,s1
     586:	176040ef          	jal	ra,46fc <GPIO_SetBits>
     58a:	0001                	nop
     58c:	0001                	nop
     58e:	0001                	nop
     590:	02000593          	li	a1,32
     594:	8526                	mv	a0,s1
     596:	15c040ef          	jal	ra,46f2 <GPIO_ReadInputDataBit>
     59a:	892a                	mv	s2,a0
     59c:	04000593          	li	a1,64
     5a0:	8526                	mv	a0,s1
     5a2:	168040ef          	jal	ra,470a <GPIO_ResetBits>
     5a6:	0001                	nop
     5a8:	0001                	nop
     5aa:	0001                	nop
     5ac:	02000593          	li	a1,32
     5b0:	8526                	mv	a0,s1
     5b2:	14a040ef          	jal	ra,46fc <GPIO_SetBits>
     5b6:	2a091463          	bnez	s2,85e <__stack_size+0x5e>
     5ba:	8009a783          	lw	a5,-2048(s3)
     5be:	00300737          	lui	a4,0x300
     5c2:	4921                	li	s2,8
     5c4:	8fe1                	and	a5,a5,s0
     5c6:	8fd9                	or	a5,a5,a4
     5c8:	80f9a023          	sw	a5,-2048(s3)
     5cc:	08c00413          	li	s0,140
     5d0:	40011a37          	lui	s4,0x40011
     5d4:	00745613          	srli	a2,s0,0x7
     5d8:	02000593          	li	a1,32
     5dc:	8526                	mv	a0,s1
     5de:	130040ef          	jal	ra,470e <GPIO_WriteBit>
     5e2:	0001                	nop
     5e4:	0001                	nop
     5e6:	0001                	nop
     5e8:	04000593          	li	a1,64
     5ec:	8526                	mv	a0,s1
     5ee:	10e040ef          	jal	ra,46fc <GPIO_SetBits>
     5f2:	0001                	nop
     5f4:	0001                	nop
     5f6:	0001                	nop
     5f8:	04000593          	li	a1,64
     5fc:	8526                	mv	a0,s1
     5fe:	0406                	slli	s0,s0,0x1
     600:	197d                	addi	s2,s2,-1
     602:	108040ef          	jal	ra,470a <GPIO_ResetBits>
     606:	0ff47413          	zext.b	s0,s0
     60a:	fc0915e3          	bnez	s2,5d4 <IIC_ReadRegI.constprop.0+0x1d4>
     60e:	800a2783          	lw	a5,-2048(s4) # 40010800 <_eusrstack+0x2000b800>
     612:	ff100937          	lui	s2,0xff100
     616:	197d                	addi	s2,s2,-1 # ff0fffff <_eusrstack+0xdf0fafff>
     618:	0127f7b3          	and	a5,a5,s2
     61c:	00800737          	lui	a4,0x800
     620:	8fd9                	or	a5,a5,a4
     622:	80fa2023          	sw	a5,-2048(s4)
     626:	800a0493          	addi	s1,s4,-2048
     62a:	0001                	nop
     62c:	0001                	nop
     62e:	0001                	nop
     630:	04000593          	li	a1,64
     634:	8526                	mv	a0,s1
     636:	0c6040ef          	jal	ra,46fc <GPIO_SetBits>
     63a:	0001                	nop
     63c:	0001                	nop
     63e:	0001                	nop
     640:	02000593          	li	a1,32
     644:	8526                	mv	a0,s1
     646:	0ac040ef          	jal	ra,46f2 <GPIO_ReadInputDataBit>
     64a:	842a                	mv	s0,a0
     64c:	04000593          	li	a1,64
     650:	8526                	mv	a0,s1
     652:	0b8040ef          	jal	ra,470a <GPIO_ResetBits>
     656:	0001                	nop
     658:	0001                	nop
     65a:	0001                	nop
     65c:	02000593          	li	a1,32
     660:	8526                	mv	a0,s1
     662:	09a040ef          	jal	ra,46fc <GPIO_SetBits>
     666:	1e041c63          	bnez	s0,85e <__stack_size+0x5e>
     66a:	8526                	mv	a0,s1
     66c:	02000593          	li	a1,32
     670:	08c040ef          	jal	ra,46fc <GPIO_SetBits>
     674:	04000593          	li	a1,64
     678:	8526                	mv	a0,s1
     67a:	082040ef          	jal	ra,46fc <GPIO_SetBits>
     67e:	800a2783          	lw	a5,-2048(s4)
     682:	00300ab7          	lui	s5,0x300
     686:	0127f7b3          	and	a5,a5,s2
     68a:	0157e7b3          	or	a5,a5,s5
     68e:	80fa2023          	sw	a5,-2048(s4)
     692:	0001                	nop
     694:	0001                	nop
     696:	0001                	nop
     698:	02000593          	li	a1,32
     69c:	8526                	mv	a0,s1
     69e:	06c040ef          	jal	ra,470a <GPIO_ResetBits>
     6a2:	0001                	nop
     6a4:	0001                	nop
     6a6:	0001                	nop
     6a8:	04000593          	li	a1,64
     6ac:	8526                	mv	a0,s1
     6ae:	05c040ef          	jal	ra,470a <GPIO_ResetBits>
     6b2:	0001                	nop
     6b4:	0001                	nop
     6b6:	0001                	nop
     6b8:	800a2783          	lw	a5,-2048(s4)
     6bc:	49a1                	li	s3,8
     6be:	0d100413          	li	s0,209
     6c2:	0127f7b3          	and	a5,a5,s2
     6c6:	0157e7b3          	or	a5,a5,s5
     6ca:	80fa2023          	sw	a5,-2048(s4)
     6ce:	40011937          	lui	s2,0x40011
     6d2:	00745613          	srli	a2,s0,0x7
     6d6:	02000593          	li	a1,32
     6da:	8526                	mv	a0,s1
     6dc:	032040ef          	jal	ra,470e <GPIO_WriteBit>
     6e0:	0001                	nop
     6e2:	0001                	nop
     6e4:	0001                	nop
     6e6:	04000593          	li	a1,64
     6ea:	8526                	mv	a0,s1
     6ec:	010040ef          	jal	ra,46fc <GPIO_SetBits>
     6f0:	0001                	nop
     6f2:	0001                	nop
     6f4:	0001                	nop
     6f6:	04000593          	li	a1,64
     6fa:	8526                	mv	a0,s1
     6fc:	0406                	slli	s0,s0,0x1
     6fe:	19fd                	addi	s3,s3,-1
     700:	00a040ef          	jal	ra,470a <GPIO_ResetBits>
     704:	0ff47413          	zext.b	s0,s0
     708:	fc0995e3          	bnez	s3,6d2 <IIC_ReadRegI.constprop.0+0x2d2>
     70c:	80092783          	lw	a5,-2048(s2) # 40010800 <_eusrstack+0x2000b800>
     710:	ff100ab7          	lui	s5,0xff100
     714:	1afd                	addi	s5,s5,-1 # ff0fffff <_eusrstack+0xdf0fafff>
     716:	0157f7b3          	and	a5,a5,s5
     71a:	00800737          	lui	a4,0x800
     71e:	8fd9                	or	a5,a5,a4
     720:	80f92023          	sw	a5,-2048(s2)
     724:	80090913          	addi	s2,s2,-2048
     728:	0001                	nop
     72a:	0001                	nop
     72c:	0001                	nop
     72e:	04000593          	li	a1,64
     732:	854a                	mv	a0,s2
     734:	7c9030ef          	jal	ra,46fc <GPIO_SetBits>
     738:	0001                	nop
     73a:	0001                	nop
     73c:	0001                	nop
     73e:	02000593          	li	a1,32
     742:	854a                	mv	a0,s2
     744:	7af030ef          	jal	ra,46f2 <GPIO_ReadInputDataBit>
     748:	84aa                	mv	s1,a0
     74a:	04000593          	li	a1,64
     74e:	854a                	mv	a0,s2
     750:	7bb030ef          	jal	ra,470a <GPIO_ResetBits>
     754:	0001                	nop
     756:	0001                	nop
     758:	0001                	nop
     75a:	02000593          	li	a1,32
     75e:	854a                	mv	a0,s2
     760:	79d030ef          	jal	ra,46fc <GPIO_SetBits>
     764:	0e049d63          	bnez	s1,85e <__stack_size+0x5e>
     768:	4a01                	li	s4,0
     76a:	40011937          	lui	s2,0x40011
     76e:	00800c37          	lui	s8,0x800
     772:	00300b37          	lui	s6,0x300
     776:	4be1                	li	s7,24
     778:	80092783          	lw	a5,-2048(s2) # 40010800 <_eusrstack+0x2000b800>
     77c:	80090c93          	addi	s9,s2,-2048
     780:	44a1                	li	s1,8
     782:	0157f7b3          	and	a5,a5,s5
     786:	0187e7b3          	or	a5,a5,s8
     78a:	80f92023          	sw	a5,-2048(s2)
     78e:	4401                	li	s0,0
     790:	04000593          	li	a1,64
     794:	8566                	mv	a0,s9
     796:	767030ef          	jal	ra,46fc <GPIO_SetBits>
     79a:	0001                	nop
     79c:	0001                	nop
     79e:	0001                	nop
     7a0:	02000593          	li	a1,32
     7a4:	8566                	mv	a0,s9
     7a6:	74d030ef          	jal	ra,46f2 <GPIO_ReadInputDataBit>
     7aa:	87aa                	mv	a5,a0
     7ac:	04000593          	li	a1,64
     7b0:	8566                	mv	a0,s9
     7b2:	0406                	slli	s0,s0,0x1
     7b4:	8c5d                	or	s0,s0,a5
     7b6:	755030ef          	jal	ra,470a <GPIO_ResetBits>
     7ba:	0001                	nop
     7bc:	0001                	nop
     7be:	0001                	nop
     7c0:	14fd                	addi	s1,s1,-1
     7c2:	f4f9                	bnez	s1,790 <IIC_ReadRegI.constprop.0+0x390>
     7c4:	0ff47793          	zext.b	a5,s0
     7c8:	014797b3          	sll	a5,a5,s4
     7cc:	02000593          	li	a1,32
     7d0:	80090513          	addi	a0,s2,-2048
     7d4:	00f9e9b3          	or	s3,s3,a5
     7d8:	733030ef          	jal	ra,470a <GPIO_ResetBits>
     7dc:	80092783          	lw	a5,-2048(s2)
     7e0:	80090413          	addi	s0,s2,-2048
     7e4:	0157f7b3          	and	a5,a5,s5
     7e8:	0167e7b3          	or	a5,a5,s6
     7ec:	80f92023          	sw	a5,-2048(s2)
     7f0:	0001                	nop
     7f2:	0001                	nop
     7f4:	0001                	nop
     7f6:	04000593          	li	a1,64
     7fa:	8522                	mv	a0,s0
     7fc:	701030ef          	jal	ra,46fc <GPIO_SetBits>
     800:	0001                	nop
     802:	0001                	nop
     804:	0001                	nop
     806:	04000593          	li	a1,64
     80a:	8522                	mv	a0,s0
     80c:	6ff030ef          	jal	ra,470a <GPIO_ResetBits>
     810:	0001                	nop
     812:	0001                	nop
     814:	0001                	nop
     816:	02000593          	li	a1,32
     81a:	0a21                	addi	s4,s4,8
     81c:	8522                	mv	a0,s0
     81e:	6df030ef          	jal	ra,46fc <GPIO_SetBits>
     822:	f57a1be3          	bne	s4,s7,778 <IIC_ReadRegI.constprop.0+0x378>
     826:	80092783          	lw	a5,-2048(s2)
     82a:	8522                	mv	a0,s0
     82c:	02000593          	li	a1,32
     830:	0157f7b3          	and	a5,a5,s5
     834:	0167e7b3          	or	a5,a5,s6
     838:	80f92023          	sw	a5,-2048(s2)
     83c:	6cf030ef          	jal	ra,470a <GPIO_ResetBits>
     840:	04000593          	li	a1,64
     844:	8522                	mv	a0,s0
     846:	6b7030ef          	jal	ra,46fc <GPIO_SetBits>
     84a:	0001                	nop
     84c:	0001                	nop
     84e:	0001                	nop
     850:	02000593          	li	a1,32
     854:	8522                	mv	a0,s0
     856:	6a7030ef          	jal	ra,46fc <GPIO_SetBits>
     85a:	854e                	mv	a0,s3
     85c:	b0d5                	j	140 <__riscv_restore_10>
     85e:	557d                	li	a0,-1
     860:	bff5                	j	85c <__stack_size+0x5c>

00000862 <IIC_ReadReg.constprop.2.isra.0>:
     862:	8a7ff2ef          	jal	t0,108 <__riscv_save_10>
     866:	40011ab7          	lui	s5,0x40011
     86a:	842a                	mv	s0,a0
     86c:	8a2e                	mv	s4,a1
     86e:	800a8513          	addi	a0,s5,-2048 # 40010800 <_eusrstack+0x2000b800>
     872:	02000593          	li	a1,32
     876:	687030ef          	jal	ra,46fc <GPIO_SetBits>
     87a:	04000593          	li	a1,64
     87e:	800a8513          	addi	a0,s5,-2048
     882:	67b030ef          	jal	ra,46fc <GPIO_SetBits>
     886:	800aa783          	lw	a5,-2048(s5)
     88a:	ff100b37          	lui	s6,0xff100
     88e:	1b7d                	addi	s6,s6,-1 # ff0fffff <_eusrstack+0xdf0fafff>
     890:	0167f7b3          	and	a5,a5,s6
     894:	00300bb7          	lui	s7,0x300
     898:	0177e7b3          	or	a5,a5,s7
     89c:	80faa023          	sw	a5,-2048(s5)
     8a0:	800a8913          	addi	s2,s5,-2048
     8a4:	0001                	nop
     8a6:	0001                	nop
     8a8:	0001                	nop
     8aa:	02000593          	li	a1,32
     8ae:	854a                	mv	a0,s2
     8b0:	65b030ef          	jal	ra,470a <GPIO_ResetBits>
     8b4:	0001                	nop
     8b6:	0001                	nop
     8b8:	0001                	nop
     8ba:	04000593          	li	a1,64
     8be:	854a                	mv	a0,s2
     8c0:	64b030ef          	jal	ra,470a <GPIO_ResetBits>
     8c4:	0001                	nop
     8c6:	0001                	nop
     8c8:	0001                	nop
     8ca:	800aa783          	lw	a5,-2048(s5)
     8ce:	49a1                	li	s3,8
     8d0:	0d000493          	li	s1,208
     8d4:	0167f7b3          	and	a5,a5,s6
     8d8:	0177e7b3          	or	a5,a5,s7
     8dc:	80faa023          	sw	a5,-2048(s5)
     8e0:	0074d613          	srli	a2,s1,0x7
     8e4:	02000593          	li	a1,32
     8e8:	854a                	mv	a0,s2
     8ea:	625030ef          	jal	ra,470e <GPIO_WriteBit>
     8ee:	0001                	nop
     8f0:	0001                	nop
     8f2:	0001                	nop
     8f4:	04000593          	li	a1,64
     8f8:	854a                	mv	a0,s2
     8fa:	603030ef          	jal	ra,46fc <GPIO_SetBits>
     8fe:	0001                	nop
     900:	0001                	nop
     902:	0001                	nop
     904:	04000593          	li	a1,64
     908:	854a                	mv	a0,s2
     90a:	0486                	slli	s1,s1,0x1
     90c:	19fd                	addi	s3,s3,-1
     90e:	5fd030ef          	jal	ra,470a <GPIO_ResetBits>
     912:	0ff4f493          	zext.b	s1,s1
     916:	fc0995e3          	bnez	s3,8e0 <IIC_ReadReg.constprop.2.isra.0+0x7e>
     91a:	800aa783          	lw	a5,-2048(s5)
     91e:	ff1009b7          	lui	s3,0xff100
     922:	19fd                	addi	s3,s3,-1 # ff0fffff <_eusrstack+0xdf0fafff>
     924:	0137f7b3          	and	a5,a5,s3
     928:	00800737          	lui	a4,0x800
     92c:	8fd9                	or	a5,a5,a4
     92e:	80faa023          	sw	a5,-2048(s5)
     932:	800a8913          	addi	s2,s5,-2048
     936:	0001                	nop
     938:	0001                	nop
     93a:	0001                	nop
     93c:	04000593          	li	a1,64
     940:	854a                	mv	a0,s2
     942:	5bb030ef          	jal	ra,46fc <GPIO_SetBits>
     946:	0001                	nop
     948:	0001                	nop
     94a:	0001                	nop
     94c:	02000593          	li	a1,32
     950:	854a                	mv	a0,s2
     952:	5a1030ef          	jal	ra,46f2 <GPIO_ReadInputDataBit>
     956:	84aa                	mv	s1,a0
     958:	04000593          	li	a1,64
     95c:	854a                	mv	a0,s2
     95e:	5ad030ef          	jal	ra,470a <GPIO_ResetBits>
     962:	0001                	nop
     964:	0001                	nop
     966:	0001                	nop
     968:	02000593          	li	a1,32
     96c:	854a                	mv	a0,s2
     96e:	58f030ef          	jal	ra,46fc <GPIO_SetBits>
     972:	34049863          	bnez	s1,cc2 <IIC_ReadReg.constprop.2.isra.0+0x460>
     976:	800aa783          	lw	a5,-2048(s5)
     97a:	00300737          	lui	a4,0x300
     97e:	00845493          	srli	s1,s0,0x8
     982:	0137f7b3          	and	a5,a5,s3
     986:	8fd9                	or	a5,a5,a4
     988:	80faa023          	sw	a5,-2048(s5)
     98c:	49a1                	li	s3,8
     98e:	40011ab7          	lui	s5,0x40011
     992:	0074d613          	srli	a2,s1,0x7
     996:	02000593          	li	a1,32
     99a:	854a                	mv	a0,s2
     99c:	573030ef          	jal	ra,470e <GPIO_WriteBit>
     9a0:	0001                	nop
     9a2:	0001                	nop
     9a4:	0001                	nop
     9a6:	04000593          	li	a1,64
     9aa:	854a                	mv	a0,s2
     9ac:	551030ef          	jal	ra,46fc <GPIO_SetBits>
     9b0:	0001                	nop
     9b2:	0001                	nop
     9b4:	0001                	nop
     9b6:	04000593          	li	a1,64
     9ba:	854a                	mv	a0,s2
     9bc:	0486                	slli	s1,s1,0x1
     9be:	19fd                	addi	s3,s3,-1
     9c0:	54b030ef          	jal	ra,470a <GPIO_ResetBits>
     9c4:	0ff4f493          	zext.b	s1,s1
     9c8:	fc0995e3          	bnez	s3,992 <IIC_ReadReg.constprop.2.isra.0+0x130>
     9cc:	800aa783          	lw	a5,-2048(s5) # 40010800 <_eusrstack+0x2000b800>
     9d0:	ff100937          	lui	s2,0xff100
     9d4:	197d                	addi	s2,s2,-1 # ff0fffff <_eusrstack+0xdf0fafff>
     9d6:	0127f7b3          	and	a5,a5,s2
     9da:	00800737          	lui	a4,0x800
     9de:	8fd9                	or	a5,a5,a4
     9e0:	80faa023          	sw	a5,-2048(s5)
     9e4:	800a8493          	addi	s1,s5,-2048
     9e8:	0001                	nop
     9ea:	0001                	nop
     9ec:	0001                	nop
     9ee:	04000593          	li	a1,64
     9f2:	8526                	mv	a0,s1
     9f4:	509030ef          	jal	ra,46fc <GPIO_SetBits>
     9f8:	0001                	nop
     9fa:	0001                	nop
     9fc:	0001                	nop
     9fe:	02000593          	li	a1,32
     a02:	8526                	mv	a0,s1
     a04:	4ef030ef          	jal	ra,46f2 <GPIO_ReadInputDataBit>
     a08:	89aa                	mv	s3,a0
     a0a:	04000593          	li	a1,64
     a0e:	8526                	mv	a0,s1
     a10:	4fb030ef          	jal	ra,470a <GPIO_ResetBits>
     a14:	0001                	nop
     a16:	0001                	nop
     a18:	0001                	nop
     a1a:	02000593          	li	a1,32
     a1e:	8526                	mv	a0,s1
     a20:	4dd030ef          	jal	ra,46fc <GPIO_SetBits>
     a24:	28099f63          	bnez	s3,cc2 <IIC_ReadReg.constprop.2.isra.0+0x460>
     a28:	800aa783          	lw	a5,-2048(s5)
     a2c:	00300737          	lui	a4,0x300
     a30:	0ff47413          	zext.b	s0,s0
     a34:	0127f7b3          	and	a5,a5,s2
     a38:	8fd9                	or	a5,a5,a4
     a3a:	80faa023          	sw	a5,-2048(s5)
     a3e:	4921                	li	s2,8
     a40:	400119b7          	lui	s3,0x40011
     a44:	00745613          	srli	a2,s0,0x7
     a48:	02000593          	li	a1,32
     a4c:	8526                	mv	a0,s1
     a4e:	4c1030ef          	jal	ra,470e <GPIO_WriteBit>
     a52:	0001                	nop
     a54:	0001                	nop
     a56:	0001                	nop
     a58:	04000593          	li	a1,64
     a5c:	8526                	mv	a0,s1
     a5e:	49f030ef          	jal	ra,46fc <GPIO_SetBits>
     a62:	0001                	nop
     a64:	0001                	nop
     a66:	0001                	nop
     a68:	04000593          	li	a1,64
     a6c:	8526                	mv	a0,s1
     a6e:	0406                	slli	s0,s0,0x1
     a70:	197d                	addi	s2,s2,-1
     a72:	499030ef          	jal	ra,470a <GPIO_ResetBits>
     a76:	0ff47413          	zext.b	s0,s0
     a7a:	fc0915e3          	bnez	s2,a44 <IIC_ReadReg.constprop.2.isra.0+0x1e2>
     a7e:	8009a783          	lw	a5,-2048(s3) # 40010800 <_eusrstack+0x2000b800>
     a82:	ff100ab7          	lui	s5,0xff100
     a86:	1afd                	addi	s5,s5,-1 # ff0fffff <_eusrstack+0xdf0fafff>
     a88:	0157f7b3          	and	a5,a5,s5
     a8c:	00800737          	lui	a4,0x800
     a90:	8fd9                	or	a5,a5,a4
     a92:	80f9a023          	sw	a5,-2048(s3)
     a96:	80098493          	addi	s1,s3,-2048
     a9a:	0001                	nop
     a9c:	0001                	nop
     a9e:	0001                	nop
     aa0:	04000593          	li	a1,64
     aa4:	8526                	mv	a0,s1
     aa6:	457030ef          	jal	ra,46fc <GPIO_SetBits>
     aaa:	0001                	nop
     aac:	0001                	nop
     aae:	0001                	nop
     ab0:	02000593          	li	a1,32
     ab4:	8526                	mv	a0,s1
     ab6:	43d030ef          	jal	ra,46f2 <GPIO_ReadInputDataBit>
     aba:	842a                	mv	s0,a0
     abc:	04000593          	li	a1,64
     ac0:	8526                	mv	a0,s1
     ac2:	449030ef          	jal	ra,470a <GPIO_ResetBits>
     ac6:	0001                	nop
     ac8:	0001                	nop
     aca:	0001                	nop
     acc:	02000593          	li	a1,32
     ad0:	8526                	mv	a0,s1
     ad2:	42b030ef          	jal	ra,46fc <GPIO_SetBits>
     ad6:	1e041663          	bnez	s0,cc2 <IIC_ReadReg.constprop.2.isra.0+0x460>
     ada:	8526                	mv	a0,s1
     adc:	02000593          	li	a1,32
     ae0:	41d030ef          	jal	ra,46fc <GPIO_SetBits>
     ae4:	04000593          	li	a1,64
     ae8:	8526                	mv	a0,s1
     aea:	413030ef          	jal	ra,46fc <GPIO_SetBits>
     aee:	8009a783          	lw	a5,-2048(s3)
     af2:	00300b37          	lui	s6,0x300
     af6:	0157f7b3          	and	a5,a5,s5
     afa:	0167e7b3          	or	a5,a5,s6
     afe:	80f9a023          	sw	a5,-2048(s3)
     b02:	0001                	nop
     b04:	0001                	nop
     b06:	0001                	nop
     b08:	02000593          	li	a1,32
     b0c:	8526                	mv	a0,s1
     b0e:	3fd030ef          	jal	ra,470a <GPIO_ResetBits>
     b12:	0001                	nop
     b14:	0001                	nop
     b16:	0001                	nop
     b18:	04000593          	li	a1,64
     b1c:	8526                	mv	a0,s1
     b1e:	3ed030ef          	jal	ra,470a <GPIO_ResetBits>
     b22:	0001                	nop
     b24:	0001                	nop
     b26:	0001                	nop
     b28:	8009a783          	lw	a5,-2048(s3)
     b2c:	4921                	li	s2,8
     b2e:	0d100413          	li	s0,209
     b32:	0157f7b3          	and	a5,a5,s5
     b36:	0167e7b3          	or	a5,a5,s6
     b3a:	80f9a023          	sw	a5,-2048(s3)
     b3e:	400119b7          	lui	s3,0x40011
     b42:	00745613          	srli	a2,s0,0x7
     b46:	02000593          	li	a1,32
     b4a:	8526                	mv	a0,s1
     b4c:	3c3030ef          	jal	ra,470e <GPIO_WriteBit>
     b50:	0001                	nop
     b52:	0001                	nop
     b54:	0001                	nop
     b56:	04000593          	li	a1,64
     b5a:	8526                	mv	a0,s1
     b5c:	3a1030ef          	jal	ra,46fc <GPIO_SetBits>
     b60:	0001                	nop
     b62:	0001                	nop
     b64:	0001                	nop
     b66:	04000593          	li	a1,64
     b6a:	8526                	mv	a0,s1
     b6c:	0406                	slli	s0,s0,0x1
     b6e:	197d                	addi	s2,s2,-1
     b70:	39b030ef          	jal	ra,470a <GPIO_ResetBits>
     b74:	0ff47413          	zext.b	s0,s0
     b78:	fc0915e3          	bnez	s2,b42 <IIC_ReadReg.constprop.2.isra.0+0x2e0>
     b7c:	8009a783          	lw	a5,-2048(s3) # 40010800 <_eusrstack+0x2000b800>
     b80:	ff100ab7          	lui	s5,0xff100
     b84:	1afd                	addi	s5,s5,-1 # ff0fffff <_eusrstack+0xdf0fafff>
     b86:	0157f7b3          	and	a5,a5,s5
     b8a:	00800737          	lui	a4,0x800
     b8e:	8fd9                	or	a5,a5,a4
     b90:	80f9a023          	sw	a5,-2048(s3)
     b94:	80098993          	addi	s3,s3,-2048
     b98:	0001                	nop
     b9a:	0001                	nop
     b9c:	0001                	nop
     b9e:	04000593          	li	a1,64
     ba2:	854e                	mv	a0,s3
     ba4:	359030ef          	jal	ra,46fc <GPIO_SetBits>
     ba8:	0001                	nop
     baa:	0001                	nop
     bac:	0001                	nop
     bae:	02000593          	li	a1,32
     bb2:	854e                	mv	a0,s3
     bb4:	33f030ef          	jal	ra,46f2 <GPIO_ReadInputDataBit>
     bb8:	84aa                	mv	s1,a0
     bba:	04000593          	li	a1,64
     bbe:	854e                	mv	a0,s3
     bc0:	34b030ef          	jal	ra,470a <GPIO_ResetBits>
     bc4:	0001                	nop
     bc6:	0001                	nop
     bc8:	0001                	nop
     bca:	02000593          	li	a1,32
     bce:	854e                	mv	a0,s3
     bd0:	32d030ef          	jal	ra,46fc <GPIO_SetBits>
     bd4:	0e049763          	bnez	s1,cc2 <IIC_ReadReg.constprop.2.isra.0+0x460>
     bd8:	004a0c13          	addi	s8,s4,4
     bdc:	400119b7          	lui	s3,0x40011
     be0:	00800bb7          	lui	s7,0x800
     be4:	00300b37          	lui	s6,0x300
     be8:	8009a783          	lw	a5,-2048(s3) # 40010800 <_eusrstack+0x2000b800>
     bec:	80098913          	addi	s2,s3,-2048
     bf0:	44a1                	li	s1,8
     bf2:	0157f7b3          	and	a5,a5,s5
     bf6:	0177e7b3          	or	a5,a5,s7
     bfa:	80f9a023          	sw	a5,-2048(s3)
     bfe:	4401                	li	s0,0
     c00:	04000593          	li	a1,64
     c04:	854a                	mv	a0,s2
     c06:	2f7030ef          	jal	ra,46fc <GPIO_SetBits>
     c0a:	0001                	nop
     c0c:	0001                	nop
     c0e:	0001                	nop
     c10:	02000593          	li	a1,32
     c14:	854a                	mv	a0,s2
     c16:	2dd030ef          	jal	ra,46f2 <GPIO_ReadInputDataBit>
     c1a:	87aa                	mv	a5,a0
     c1c:	04000593          	li	a1,64
     c20:	854a                	mv	a0,s2
     c22:	0406                	slli	s0,s0,0x1
     c24:	8c5d                	or	s0,s0,a5
     c26:	2e5030ef          	jal	ra,470a <GPIO_ResetBits>
     c2a:	0001                	nop
     c2c:	0001                	nop
     c2e:	0001                	nop
     c30:	14fd                	addi	s1,s1,-1
     c32:	f4f9                	bnez	s1,c00 <IIC_ReadReg.constprop.2.isra.0+0x39e>
     c34:	008a0023          	sb	s0,0(s4)
     c38:	02000593          	li	a1,32
     c3c:	80098513          	addi	a0,s3,-2048
     c40:	2cb030ef          	jal	ra,470a <GPIO_ResetBits>
     c44:	8009a783          	lw	a5,-2048(s3)
     c48:	80098413          	addi	s0,s3,-2048
     c4c:	0157f7b3          	and	a5,a5,s5
     c50:	0167e7b3          	or	a5,a5,s6
     c54:	80f9a023          	sw	a5,-2048(s3)
     c58:	0001                	nop
     c5a:	0001                	nop
     c5c:	0001                	nop
     c5e:	04000593          	li	a1,64
     c62:	8522                	mv	a0,s0
     c64:	299030ef          	jal	ra,46fc <GPIO_SetBits>
     c68:	0001                	nop
     c6a:	0001                	nop
     c6c:	0001                	nop
     c6e:	04000593          	li	a1,64
     c72:	8522                	mv	a0,s0
     c74:	297030ef          	jal	ra,470a <GPIO_ResetBits>
     c78:	0001                	nop
     c7a:	0001                	nop
     c7c:	0001                	nop
     c7e:	02000593          	li	a1,32
     c82:	0a05                	addi	s4,s4,1
     c84:	8522                	mv	a0,s0
     c86:	277030ef          	jal	ra,46fc <GPIO_SetBits>
     c8a:	f58a1fe3          	bne	s4,s8,be8 <IIC_ReadReg.constprop.2.isra.0+0x386>
     c8e:	8009a783          	lw	a5,-2048(s3)
     c92:	8522                	mv	a0,s0
     c94:	02000593          	li	a1,32
     c98:	0157f7b3          	and	a5,a5,s5
     c9c:	0167e7b3          	or	a5,a5,s6
     ca0:	80f9a023          	sw	a5,-2048(s3)
     ca4:	267030ef          	jal	ra,470a <GPIO_ResetBits>
     ca8:	04000593          	li	a1,64
     cac:	8522                	mv	a0,s0
     cae:	24f030ef          	jal	ra,46fc <GPIO_SetBits>
     cb2:	0001                	nop
     cb4:	0001                	nop
     cb6:	0001                	nop
     cb8:	02000593          	li	a1,32
     cbc:	8522                	mv	a0,s0
     cbe:	23f030ef          	jal	ra,46fc <GPIO_SetBits>
     cc2:	c7eff06f          	j	140 <__riscv_restore_10>

00000cc6 <IIC_ReadReg.constprop.1.isra.0>:
     cc6:	c42ff2ef          	jal	t0,108 <__riscv_save_10>
     cca:	400119b7          	lui	s3,0x40011
     cce:	8a2a                	mv	s4,a0
     cd0:	02000593          	li	a1,32
     cd4:	80098513          	addi	a0,s3,-2048 # 40010800 <_eusrstack+0x2000b800>
     cd8:	225030ef          	jal	ra,46fc <GPIO_SetBits>
     cdc:	04000593          	li	a1,64
     ce0:	80098513          	addi	a0,s3,-2048
     ce4:	219030ef          	jal	ra,46fc <GPIO_SetBits>
     ce8:	8009a783          	lw	a5,-2048(s3)
     cec:	ff100ab7          	lui	s5,0xff100
     cf0:	1afd                	addi	s5,s5,-1 # ff0fffff <_eusrstack+0xdf0fafff>
     cf2:	0157f7b3          	and	a5,a5,s5
     cf6:	00300b37          	lui	s6,0x300
     cfa:	0167e7b3          	or	a5,a5,s6
     cfe:	80f9a023          	sw	a5,-2048(s3)
     d02:	80098493          	addi	s1,s3,-2048
     d06:	0001                	nop
     d08:	0001                	nop
     d0a:	0001                	nop
     d0c:	02000593          	li	a1,32
     d10:	8526                	mv	a0,s1
     d12:	1f9030ef          	jal	ra,470a <GPIO_ResetBits>
     d16:	0001                	nop
     d18:	0001                	nop
     d1a:	0001                	nop
     d1c:	04000593          	li	a1,64
     d20:	8526                	mv	a0,s1
     d22:	1e9030ef          	jal	ra,470a <GPIO_ResetBits>
     d26:	0001                	nop
     d28:	0001                	nop
     d2a:	0001                	nop
     d2c:	8009a783          	lw	a5,-2048(s3)
     d30:	4921                	li	s2,8
     d32:	0d000413          	li	s0,208
     d36:	0157f7b3          	and	a5,a5,s5
     d3a:	0167e7b3          	or	a5,a5,s6
     d3e:	80f9a023          	sw	a5,-2048(s3)
     d42:	00745613          	srli	a2,s0,0x7
     d46:	02000593          	li	a1,32
     d4a:	8526                	mv	a0,s1
     d4c:	1c3030ef          	jal	ra,470e <GPIO_WriteBit>
     d50:	0001                	nop
     d52:	0001                	nop
     d54:	0001                	nop
     d56:	04000593          	li	a1,64
     d5a:	8526                	mv	a0,s1
     d5c:	1a1030ef          	jal	ra,46fc <GPIO_SetBits>
     d60:	0001                	nop
     d62:	0001                	nop
     d64:	0001                	nop
     d66:	04000593          	li	a1,64
     d6a:	8526                	mv	a0,s1
     d6c:	0406                	slli	s0,s0,0x1
     d6e:	197d                	addi	s2,s2,-1
     d70:	19b030ef          	jal	ra,470a <GPIO_ResetBits>
     d74:	0ff47413          	zext.b	s0,s0
     d78:	fc0915e3          	bnez	s2,d42 <IIC_ReadReg.constprop.1.isra.0+0x7c>
     d7c:	8009a783          	lw	a5,-2048(s3)
     d80:	ff100437          	lui	s0,0xff100
     d84:	147d                	addi	s0,s0,-1 # ff0fffff <_eusrstack+0xdf0fafff>
     d86:	8fe1                	and	a5,a5,s0
     d88:	00800737          	lui	a4,0x800
     d8c:	8fd9                	or	a5,a5,a4
     d8e:	80f9a023          	sw	a5,-2048(s3)
     d92:	80098493          	addi	s1,s3,-2048
     d96:	0001                	nop
     d98:	0001                	nop
     d9a:	0001                	nop
     d9c:	04000593          	li	a1,64
     da0:	8526                	mv	a0,s1
     da2:	15b030ef          	jal	ra,46fc <GPIO_SetBits>
     da6:	0001                	nop
     da8:	0001                	nop
     daa:	0001                	nop
     dac:	02000593          	li	a1,32
     db0:	8526                	mv	a0,s1
     db2:	141030ef          	jal	ra,46f2 <GPIO_ReadInputDataBit>
     db6:	892a                	mv	s2,a0
     db8:	04000593          	li	a1,64
     dbc:	8526                	mv	a0,s1
     dbe:	14d030ef          	jal	ra,470a <GPIO_ResetBits>
     dc2:	0001                	nop
     dc4:	0001                	nop
     dc6:	0001                	nop
     dc8:	02000593          	li	a1,32
     dcc:	8526                	mv	a0,s1
     dce:	12f030ef          	jal	ra,46fc <GPIO_SetBits>
     dd2:	34091463          	bnez	s2,111a <IIC_ReadReg.constprop.1.isra.0+0x454>
     dd6:	8009a783          	lw	a5,-2048(s3)
     dda:	00300737          	lui	a4,0x300
     dde:	4921                	li	s2,8
     de0:	8fe1                	and	a5,a5,s0
     de2:	8fd9                	or	a5,a5,a4
     de4:	80f9a023          	sw	a5,-2048(s3)
     de8:	4419                	li	s0,6
     dea:	400119b7          	lui	s3,0x40011
     dee:	00745613          	srli	a2,s0,0x7
     df2:	02000593          	li	a1,32
     df6:	8526                	mv	a0,s1
     df8:	117030ef          	jal	ra,470e <GPIO_WriteBit>
     dfc:	0001                	nop
     dfe:	0001                	nop
     e00:	0001                	nop
     e02:	04000593          	li	a1,64
     e06:	8526                	mv	a0,s1
     e08:	0f5030ef          	jal	ra,46fc <GPIO_SetBits>
     e0c:	0001                	nop
     e0e:	0001                	nop
     e10:	0001                	nop
     e12:	04000593          	li	a1,64
     e16:	8526                	mv	a0,s1
     e18:	0406                	slli	s0,s0,0x1
     e1a:	197d                	addi	s2,s2,-1
     e1c:	0ef030ef          	jal	ra,470a <GPIO_ResetBits>
     e20:	0ff47413          	zext.b	s0,s0
     e24:	fc0915e3          	bnez	s2,dee <IIC_ReadReg.constprop.1.isra.0+0x128>
     e28:	8009a783          	lw	a5,-2048(s3) # 40010800 <_eusrstack+0x2000b800>
     e2c:	ff100437          	lui	s0,0xff100
     e30:	147d                	addi	s0,s0,-1 # ff0fffff <_eusrstack+0xdf0fafff>
     e32:	8fe1                	and	a5,a5,s0
     e34:	00800737          	lui	a4,0x800
     e38:	8fd9                	or	a5,a5,a4
     e3a:	80f9a023          	sw	a5,-2048(s3)
     e3e:	80098493          	addi	s1,s3,-2048
     e42:	0001                	nop
     e44:	0001                	nop
     e46:	0001                	nop
     e48:	04000593          	li	a1,64
     e4c:	8526                	mv	a0,s1
     e4e:	0af030ef          	jal	ra,46fc <GPIO_SetBits>
     e52:	0001                	nop
     e54:	0001                	nop
     e56:	0001                	nop
     e58:	02000593          	li	a1,32
     e5c:	8526                	mv	a0,s1
     e5e:	095030ef          	jal	ra,46f2 <GPIO_ReadInputDataBit>
     e62:	892a                	mv	s2,a0
     e64:	04000593          	li	a1,64
     e68:	8526                	mv	a0,s1
     e6a:	0a1030ef          	jal	ra,470a <GPIO_ResetBits>
     e6e:	0001                	nop
     e70:	0001                	nop
     e72:	0001                	nop
     e74:	02000593          	li	a1,32
     e78:	8526                	mv	a0,s1
     e7a:	083030ef          	jal	ra,46fc <GPIO_SetBits>
     e7e:	28091e63          	bnez	s2,111a <IIC_ReadReg.constprop.1.isra.0+0x454>
     e82:	8009a783          	lw	a5,-2048(s3)
     e86:	00300737          	lui	a4,0x300
     e8a:	4921                	li	s2,8
     e8c:	8fe1                	and	a5,a5,s0
     e8e:	8fd9                	or	a5,a5,a4
     e90:	80f9a023          	sw	a5,-2048(s3)
     e94:	0d000413          	li	s0,208
     e98:	400119b7          	lui	s3,0x40011
     e9c:	00745613          	srli	a2,s0,0x7
     ea0:	02000593          	li	a1,32
     ea4:	8526                	mv	a0,s1
     ea6:	069030ef          	jal	ra,470e <GPIO_WriteBit>
     eaa:	0001                	nop
     eac:	0001                	nop
     eae:	0001                	nop
     eb0:	04000593          	li	a1,64
     eb4:	8526                	mv	a0,s1
     eb6:	047030ef          	jal	ra,46fc <GPIO_SetBits>
     eba:	0001                	nop
     ebc:	0001                	nop
     ebe:	0001                	nop
     ec0:	04000593          	li	a1,64
     ec4:	8526                	mv	a0,s1
     ec6:	0406                	slli	s0,s0,0x1
     ec8:	197d                	addi	s2,s2,-1
     eca:	041030ef          	jal	ra,470a <GPIO_ResetBits>
     ece:	0ff47413          	zext.b	s0,s0
     ed2:	fc0915e3          	bnez	s2,e9c <IIC_ReadReg.constprop.1.isra.0+0x1d6>
     ed6:	8009a783          	lw	a5,-2048(s3) # 40010800 <_eusrstack+0x2000b800>
     eda:	ff100ab7          	lui	s5,0xff100
     ede:	1afd                	addi	s5,s5,-1 # ff0fffff <_eusrstack+0xdf0fafff>
     ee0:	0157f7b3          	and	a5,a5,s5
     ee4:	00800737          	lui	a4,0x800
     ee8:	8fd9                	or	a5,a5,a4
     eea:	80f9a023          	sw	a5,-2048(s3)
     eee:	80098493          	addi	s1,s3,-2048
     ef2:	0001                	nop
     ef4:	0001                	nop
     ef6:	0001                	nop
     ef8:	04000593          	li	a1,64
     efc:	8526                	mv	a0,s1
     efe:	7fe030ef          	jal	ra,46fc <GPIO_SetBits>
     f02:	0001                	nop
     f04:	0001                	nop
     f06:	0001                	nop
     f08:	02000593          	li	a1,32
     f0c:	8526                	mv	a0,s1
     f0e:	7e4030ef          	jal	ra,46f2 <GPIO_ReadInputDataBit>
     f12:	842a                	mv	s0,a0
     f14:	04000593          	li	a1,64
     f18:	8526                	mv	a0,s1
     f1a:	7f0030ef          	jal	ra,470a <GPIO_ResetBits>
     f1e:	0001                	nop
     f20:	0001                	nop
     f22:	0001                	nop
     f24:	02000593          	li	a1,32
     f28:	8526                	mv	a0,s1
     f2a:	7d2030ef          	jal	ra,46fc <GPIO_SetBits>
     f2e:	1e041663          	bnez	s0,111a <IIC_ReadReg.constprop.1.isra.0+0x454>
     f32:	8526                	mv	a0,s1
     f34:	02000593          	li	a1,32
     f38:	7c4030ef          	jal	ra,46fc <GPIO_SetBits>
     f3c:	04000593          	li	a1,64
     f40:	8526                	mv	a0,s1
     f42:	7ba030ef          	jal	ra,46fc <GPIO_SetBits>
     f46:	8009a783          	lw	a5,-2048(s3)
     f4a:	00300b37          	lui	s6,0x300
     f4e:	0157f7b3          	and	a5,a5,s5
     f52:	0167e7b3          	or	a5,a5,s6
     f56:	80f9a023          	sw	a5,-2048(s3)
     f5a:	0001                	nop
     f5c:	0001                	nop
     f5e:	0001                	nop
     f60:	02000593          	li	a1,32
     f64:	8526                	mv	a0,s1
     f66:	7a4030ef          	jal	ra,470a <GPIO_ResetBits>
     f6a:	0001                	nop
     f6c:	0001                	nop
     f6e:	0001                	nop
     f70:	04000593          	li	a1,64
     f74:	8526                	mv	a0,s1
     f76:	794030ef          	jal	ra,470a <GPIO_ResetBits>
     f7a:	0001                	nop
     f7c:	0001                	nop
     f7e:	0001                	nop
     f80:	8009a783          	lw	a5,-2048(s3)
     f84:	4921                	li	s2,8
     f86:	0d100413          	li	s0,209
     f8a:	0157f7b3          	and	a5,a5,s5
     f8e:	0167e7b3          	or	a5,a5,s6
     f92:	80f9a023          	sw	a5,-2048(s3)
     f96:	400119b7          	lui	s3,0x40011
     f9a:	00745613          	srli	a2,s0,0x7
     f9e:	02000593          	li	a1,32
     fa2:	8526                	mv	a0,s1
     fa4:	76a030ef          	jal	ra,470e <GPIO_WriteBit>
     fa8:	0001                	nop
     faa:	0001                	nop
     fac:	0001                	nop
     fae:	04000593          	li	a1,64
     fb2:	8526                	mv	a0,s1
     fb4:	748030ef          	jal	ra,46fc <GPIO_SetBits>
     fb8:	0001                	nop
     fba:	0001                	nop
     fbc:	0001                	nop
     fbe:	04000593          	li	a1,64
     fc2:	8526                	mv	a0,s1
     fc4:	0406                	slli	s0,s0,0x1
     fc6:	197d                	addi	s2,s2,-1
     fc8:	742030ef          	jal	ra,470a <GPIO_ResetBits>
     fcc:	0ff47413          	zext.b	s0,s0
     fd0:	fc0915e3          	bnez	s2,f9a <IIC_ReadReg.constprop.1.isra.0+0x2d4>
     fd4:	8009a783          	lw	a5,-2048(s3) # 40010800 <_eusrstack+0x2000b800>
     fd8:	ff100ab7          	lui	s5,0xff100
     fdc:	1afd                	addi	s5,s5,-1 # ff0fffff <_eusrstack+0xdf0fafff>
     fde:	0157f7b3          	and	a5,a5,s5
     fe2:	00800737          	lui	a4,0x800
     fe6:	8fd9                	or	a5,a5,a4
     fe8:	80f9a023          	sw	a5,-2048(s3)
     fec:	80098993          	addi	s3,s3,-2048
     ff0:	0001                	nop
     ff2:	0001                	nop
     ff4:	0001                	nop
     ff6:	04000593          	li	a1,64
     ffa:	854e                	mv	a0,s3
     ffc:	700030ef          	jal	ra,46fc <GPIO_SetBits>
    1000:	0001                	nop
    1002:	0001                	nop
    1004:	0001                	nop
    1006:	02000593          	li	a1,32
    100a:	854e                	mv	a0,s3
    100c:	6e6030ef          	jal	ra,46f2 <GPIO_ReadInputDataBit>
    1010:	84aa                	mv	s1,a0
    1012:	04000593          	li	a1,64
    1016:	854e                	mv	a0,s3
    1018:	6f2030ef          	jal	ra,470a <GPIO_ResetBits>
    101c:	0001                	nop
    101e:	0001                	nop
    1020:	0001                	nop
    1022:	02000593          	li	a1,32
    1026:	854e                	mv	a0,s3
    1028:	6d4030ef          	jal	ra,46fc <GPIO_SetBits>
    102c:	0e049763          	bnez	s1,111a <IIC_ReadReg.constprop.1.isra.0+0x454>
    1030:	004a0c13          	addi	s8,s4,4
    1034:	400119b7          	lui	s3,0x40011
    1038:	00800bb7          	lui	s7,0x800
    103c:	00300b37          	lui	s6,0x300
    1040:	8009a783          	lw	a5,-2048(s3) # 40010800 <_eusrstack+0x2000b800>
    1044:	80098913          	addi	s2,s3,-2048
    1048:	44a1                	li	s1,8
    104a:	0157f7b3          	and	a5,a5,s5
    104e:	0177e7b3          	or	a5,a5,s7
    1052:	80f9a023          	sw	a5,-2048(s3)
    1056:	4401                	li	s0,0
    1058:	04000593          	li	a1,64
    105c:	854a                	mv	a0,s2
    105e:	69e030ef          	jal	ra,46fc <GPIO_SetBits>
    1062:	0001                	nop
    1064:	0001                	nop
    1066:	0001                	nop
    1068:	02000593          	li	a1,32
    106c:	854a                	mv	a0,s2
    106e:	684030ef          	jal	ra,46f2 <GPIO_ReadInputDataBit>
    1072:	87aa                	mv	a5,a0
    1074:	04000593          	li	a1,64
    1078:	854a                	mv	a0,s2
    107a:	0406                	slli	s0,s0,0x1
    107c:	8c5d                	or	s0,s0,a5
    107e:	68c030ef          	jal	ra,470a <GPIO_ResetBits>
    1082:	0001                	nop
    1084:	0001                	nop
    1086:	0001                	nop
    1088:	14fd                	addi	s1,s1,-1
    108a:	f4f9                	bnez	s1,1058 <IIC_ReadReg.constprop.1.isra.0+0x392>
    108c:	008a0023          	sb	s0,0(s4)
    1090:	02000593          	li	a1,32
    1094:	80098513          	addi	a0,s3,-2048
    1098:	672030ef          	jal	ra,470a <GPIO_ResetBits>
    109c:	8009a783          	lw	a5,-2048(s3)
    10a0:	80098413          	addi	s0,s3,-2048
    10a4:	0157f7b3          	and	a5,a5,s5
    10a8:	0167e7b3          	or	a5,a5,s6
    10ac:	80f9a023          	sw	a5,-2048(s3)
    10b0:	0001                	nop
    10b2:	0001                	nop
    10b4:	0001                	nop
    10b6:	04000593          	li	a1,64
    10ba:	8522                	mv	a0,s0
    10bc:	640030ef          	jal	ra,46fc <GPIO_SetBits>
    10c0:	0001                	nop
    10c2:	0001                	nop
    10c4:	0001                	nop
    10c6:	04000593          	li	a1,64
    10ca:	8522                	mv	a0,s0
    10cc:	63e030ef          	jal	ra,470a <GPIO_ResetBits>
    10d0:	0001                	nop
    10d2:	0001                	nop
    10d4:	0001                	nop
    10d6:	02000593          	li	a1,32
    10da:	0a05                	addi	s4,s4,1
    10dc:	8522                	mv	a0,s0
    10de:	61e030ef          	jal	ra,46fc <GPIO_SetBits>
    10e2:	f58a1fe3          	bne	s4,s8,1040 <IIC_ReadReg.constprop.1.isra.0+0x37a>
    10e6:	8009a783          	lw	a5,-2048(s3)
    10ea:	8522                	mv	a0,s0
    10ec:	02000593          	li	a1,32
    10f0:	0157f7b3          	and	a5,a5,s5
    10f4:	0167e7b3          	or	a5,a5,s6
    10f8:	80f9a023          	sw	a5,-2048(s3)
    10fc:	60e030ef          	jal	ra,470a <GPIO_ResetBits>
    1100:	04000593          	li	a1,64
    1104:	8522                	mv	a0,s0
    1106:	5f6030ef          	jal	ra,46fc <GPIO_SetBits>
    110a:	0001                	nop
    110c:	0001                	nop
    110e:	0001                	nop
    1110:	02000593          	li	a1,32
    1114:	8522                	mv	a0,s0
    1116:	5e6030ef          	jal	ra,46fc <GPIO_SetBits>
    111a:	826ff06f          	j	140 <__riscv_restore_10>

0000111e <IIC_ReadReg.constprop.0.isra.0>:
    111e:	febfe2ef          	jal	t0,108 <__riscv_save_10>
    1122:	400119b7          	lui	s3,0x40011
    1126:	8a2a                	mv	s4,a0
    1128:	8b2e                	mv	s6,a1
    112a:	80098513          	addi	a0,s3,-2048 # 40010800 <_eusrstack+0x2000b800>
    112e:	02000593          	li	a1,32
    1132:	5ca030ef          	jal	ra,46fc <GPIO_SetBits>
    1136:	04000593          	li	a1,64
    113a:	80098513          	addi	a0,s3,-2048
    113e:	5be030ef          	jal	ra,46fc <GPIO_SetBits>
    1142:	8009a783          	lw	a5,-2048(s3)
    1146:	ff100ab7          	lui	s5,0xff100
    114a:	1afd                	addi	s5,s5,-1 # ff0fffff <_eusrstack+0xdf0fafff>
    114c:	0157f7b3          	and	a5,a5,s5
    1150:	00300bb7          	lui	s7,0x300
    1154:	0177e7b3          	or	a5,a5,s7
    1158:	80f9a023          	sw	a5,-2048(s3)
    115c:	80098493          	addi	s1,s3,-2048
    1160:	0001                	nop
    1162:	0001                	nop
    1164:	0001                	nop
    1166:	02000593          	li	a1,32
    116a:	8526                	mv	a0,s1
    116c:	59e030ef          	jal	ra,470a <GPIO_ResetBits>
    1170:	0001                	nop
    1172:	0001                	nop
    1174:	0001                	nop
    1176:	04000593          	li	a1,64
    117a:	8526                	mv	a0,s1
    117c:	58e030ef          	jal	ra,470a <GPIO_ResetBits>
    1180:	0001                	nop
    1182:	0001                	nop
    1184:	0001                	nop
    1186:	8009a783          	lw	a5,-2048(s3)
    118a:	4921                	li	s2,8
    118c:	0d000413          	li	s0,208
    1190:	0157f7b3          	and	a5,a5,s5
    1194:	0177e7b3          	or	a5,a5,s7
    1198:	80f9a023          	sw	a5,-2048(s3)
    119c:	00745613          	srli	a2,s0,0x7
    11a0:	02000593          	li	a1,32
    11a4:	8526                	mv	a0,s1
    11a6:	568030ef          	jal	ra,470e <GPIO_WriteBit>
    11aa:	0001                	nop
    11ac:	0001                	nop
    11ae:	0001                	nop
    11b0:	04000593          	li	a1,64
    11b4:	8526                	mv	a0,s1
    11b6:	546030ef          	jal	ra,46fc <GPIO_SetBits>
    11ba:	0001                	nop
    11bc:	0001                	nop
    11be:	0001                	nop
    11c0:	04000593          	li	a1,64
    11c4:	8526                	mv	a0,s1
    11c6:	0406                	slli	s0,s0,0x1
    11c8:	197d                	addi	s2,s2,-1
    11ca:	540030ef          	jal	ra,470a <GPIO_ResetBits>
    11ce:	0ff47413          	zext.b	s0,s0
    11d2:	fc0915e3          	bnez	s2,119c <IIC_ReadReg.constprop.0.isra.0+0x7e>
    11d6:	8009a783          	lw	a5,-2048(s3)
    11da:	ff100437          	lui	s0,0xff100
    11de:	147d                	addi	s0,s0,-1 # ff0fffff <_eusrstack+0xdf0fafff>
    11e0:	8fe1                	and	a5,a5,s0
    11e2:	00800737          	lui	a4,0x800
    11e6:	8fd9                	or	a5,a5,a4
    11e8:	80f9a023          	sw	a5,-2048(s3)
    11ec:	80098493          	addi	s1,s3,-2048
    11f0:	0001                	nop
    11f2:	0001                	nop
    11f4:	0001                	nop
    11f6:	04000593          	li	a1,64
    11fa:	8526                	mv	a0,s1
    11fc:	500030ef          	jal	ra,46fc <GPIO_SetBits>
    1200:	0001                	nop
    1202:	0001                	nop
    1204:	0001                	nop
    1206:	02000593          	li	a1,32
    120a:	8526                	mv	a0,s1
    120c:	4e6030ef          	jal	ra,46f2 <GPIO_ReadInputDataBit>
    1210:	892a                	mv	s2,a0
    1212:	04000593          	li	a1,64
    1216:	8526                	mv	a0,s1
    1218:	4f2030ef          	jal	ra,470a <GPIO_ResetBits>
    121c:	0001                	nop
    121e:	0001                	nop
    1220:	0001                	nop
    1222:	02000593          	li	a1,32
    1226:	8526                	mv	a0,s1
    1228:	4d4030ef          	jal	ra,46fc <GPIO_SetBits>
    122c:	34091c63          	bnez	s2,1584 <IIC_ReadReg.constprop.0.isra.0+0x466>
    1230:	8009a783          	lw	a5,-2048(s3)
    1234:	00300737          	lui	a4,0x300
    1238:	4921                	li	s2,8
    123a:	8fe1                	and	a5,a5,s0
    123c:	8fd9                	or	a5,a5,a4
    123e:	80f9a023          	sw	a5,-2048(s3)
    1242:	4419                	li	s0,6
    1244:	400119b7          	lui	s3,0x40011
    1248:	00745613          	srli	a2,s0,0x7
    124c:	02000593          	li	a1,32
    1250:	8526                	mv	a0,s1
    1252:	4bc030ef          	jal	ra,470e <GPIO_WriteBit>
    1256:	0001                	nop
    1258:	0001                	nop
    125a:	0001                	nop
    125c:	04000593          	li	a1,64
    1260:	8526                	mv	a0,s1
    1262:	49a030ef          	jal	ra,46fc <GPIO_SetBits>
    1266:	0001                	nop
    1268:	0001                	nop
    126a:	0001                	nop
    126c:	04000593          	li	a1,64
    1270:	8526                	mv	a0,s1
    1272:	0406                	slli	s0,s0,0x1
    1274:	197d                	addi	s2,s2,-1
    1276:	494030ef          	jal	ra,470a <GPIO_ResetBits>
    127a:	0ff47413          	zext.b	s0,s0
    127e:	fc0915e3          	bnez	s2,1248 <IIC_ReadReg.constprop.0.isra.0+0x12a>
    1282:	8009a783          	lw	a5,-2048(s3) # 40010800 <_eusrstack+0x2000b800>
    1286:	ff100437          	lui	s0,0xff100
    128a:	147d                	addi	s0,s0,-1 # ff0fffff <_eusrstack+0xdf0fafff>
    128c:	8fe1                	and	a5,a5,s0
    128e:	00800737          	lui	a4,0x800
    1292:	8fd9                	or	a5,a5,a4
    1294:	80f9a023          	sw	a5,-2048(s3)
    1298:	80098493          	addi	s1,s3,-2048
    129c:	0001                	nop
    129e:	0001                	nop
    12a0:	0001                	nop
    12a2:	04000593          	li	a1,64
    12a6:	8526                	mv	a0,s1
    12a8:	454030ef          	jal	ra,46fc <GPIO_SetBits>
    12ac:	0001                	nop
    12ae:	0001                	nop
    12b0:	0001                	nop
    12b2:	02000593          	li	a1,32
    12b6:	8526                	mv	a0,s1
    12b8:	43a030ef          	jal	ra,46f2 <GPIO_ReadInputDataBit>
    12bc:	892a                	mv	s2,a0
    12be:	04000593          	li	a1,64
    12c2:	8526                	mv	a0,s1
    12c4:	446030ef          	jal	ra,470a <GPIO_ResetBits>
    12c8:	0001                	nop
    12ca:	0001                	nop
    12cc:	0001                	nop
    12ce:	02000593          	li	a1,32
    12d2:	8526                	mv	a0,s1
    12d4:	428030ef          	jal	ra,46fc <GPIO_SetBits>
    12d8:	2a091663          	bnez	s2,1584 <IIC_ReadReg.constprop.0.isra.0+0x466>
    12dc:	8009a783          	lw	a5,-2048(s3)
    12e0:	00300737          	lui	a4,0x300
    12e4:	4921                	li	s2,8
    12e6:	8fe1                	and	a5,a5,s0
    12e8:	8fd9                	or	a5,a5,a4
    12ea:	80f9a023          	sw	a5,-2048(s3)
    12ee:	07c00413          	li	s0,124
    12f2:	400119b7          	lui	s3,0x40011
    12f6:	00745613          	srli	a2,s0,0x7
    12fa:	02000593          	li	a1,32
    12fe:	8526                	mv	a0,s1
    1300:	40e030ef          	jal	ra,470e <GPIO_WriteBit>
    1304:	0001                	nop
    1306:	0001                	nop
    1308:	0001                	nop
    130a:	04000593          	li	a1,64
    130e:	8526                	mv	a0,s1
    1310:	3ec030ef          	jal	ra,46fc <GPIO_SetBits>
    1314:	0001                	nop
    1316:	0001                	nop
    1318:	0001                	nop
    131a:	04000593          	li	a1,64
    131e:	8526                	mv	a0,s1
    1320:	0406                	slli	s0,s0,0x1
    1322:	197d                	addi	s2,s2,-1
    1324:	3e6030ef          	jal	ra,470a <GPIO_ResetBits>
    1328:	0ff47413          	zext.b	s0,s0
    132c:	fc0915e3          	bnez	s2,12f6 <IIC_ReadReg.constprop.0.isra.0+0x1d8>
    1330:	8009a783          	lw	a5,-2048(s3) # 40010800 <_eusrstack+0x2000b800>
    1334:	ff100ab7          	lui	s5,0xff100
    1338:	1afd                	addi	s5,s5,-1 # ff0fffff <_eusrstack+0xdf0fafff>
    133a:	0157f7b3          	and	a5,a5,s5
    133e:	00800737          	lui	a4,0x800
    1342:	8fd9                	or	a5,a5,a4
    1344:	80f9a023          	sw	a5,-2048(s3)
    1348:	80098493          	addi	s1,s3,-2048
    134c:	0001                	nop
    134e:	0001                	nop
    1350:	0001                	nop
    1352:	04000593          	li	a1,64
    1356:	8526                	mv	a0,s1
    1358:	3a4030ef          	jal	ra,46fc <GPIO_SetBits>
    135c:	0001                	nop
    135e:	0001                	nop
    1360:	0001                	nop
    1362:	02000593          	li	a1,32
    1366:	8526                	mv	a0,s1
    1368:	38a030ef          	jal	ra,46f2 <GPIO_ReadInputDataBit>
    136c:	842a                	mv	s0,a0
    136e:	04000593          	li	a1,64
    1372:	8526                	mv	a0,s1
    1374:	396030ef          	jal	ra,470a <GPIO_ResetBits>
    1378:	0001                	nop
    137a:	0001                	nop
    137c:	0001                	nop
    137e:	02000593          	li	a1,32
    1382:	8526                	mv	a0,s1
    1384:	378030ef          	jal	ra,46fc <GPIO_SetBits>
    1388:	1e041e63          	bnez	s0,1584 <IIC_ReadReg.constprop.0.isra.0+0x466>
    138c:	8526                	mv	a0,s1
    138e:	02000593          	li	a1,32
    1392:	36a030ef          	jal	ra,46fc <GPIO_SetBits>
    1396:	04000593          	li	a1,64
    139a:	8526                	mv	a0,s1
    139c:	360030ef          	jal	ra,46fc <GPIO_SetBits>
    13a0:	8009a783          	lw	a5,-2048(s3)
    13a4:	00300bb7          	lui	s7,0x300
    13a8:	0157f7b3          	and	a5,a5,s5
    13ac:	0177e7b3          	or	a5,a5,s7
    13b0:	80f9a023          	sw	a5,-2048(s3)
    13b4:	0001                	nop
    13b6:	0001                	nop
    13b8:	0001                	nop
    13ba:	02000593          	li	a1,32
    13be:	8526                	mv	a0,s1
    13c0:	34a030ef          	jal	ra,470a <GPIO_ResetBits>
    13c4:	0001                	nop
    13c6:	0001                	nop
    13c8:	0001                	nop
    13ca:	04000593          	li	a1,64
    13ce:	8526                	mv	a0,s1
    13d0:	33a030ef          	jal	ra,470a <GPIO_ResetBits>
    13d4:	0001                	nop
    13d6:	0001                	nop
    13d8:	0001                	nop
    13da:	8009a783          	lw	a5,-2048(s3)
    13de:	4921                	li	s2,8
    13e0:	0d100413          	li	s0,209
    13e4:	0157f7b3          	and	a5,a5,s5
    13e8:	0177e7b3          	or	a5,a5,s7
    13ec:	80f9a023          	sw	a5,-2048(s3)
    13f0:	400119b7          	lui	s3,0x40011
    13f4:	00745613          	srli	a2,s0,0x7
    13f8:	02000593          	li	a1,32
    13fc:	8526                	mv	a0,s1
    13fe:	310030ef          	jal	ra,470e <GPIO_WriteBit>
    1402:	0001                	nop
    1404:	0001                	nop
    1406:	0001                	nop
    1408:	04000593          	li	a1,64
    140c:	8526                	mv	a0,s1
    140e:	2ee030ef          	jal	ra,46fc <GPIO_SetBits>
    1412:	0001                	nop
    1414:	0001                	nop
    1416:	0001                	nop
    1418:	04000593          	li	a1,64
    141c:	8526                	mv	a0,s1
    141e:	0406                	slli	s0,s0,0x1
    1420:	197d                	addi	s2,s2,-1
    1422:	2e8030ef          	jal	ra,470a <GPIO_ResetBits>
    1426:	0ff47413          	zext.b	s0,s0
    142a:	fc0915e3          	bnez	s2,13f4 <IIC_ReadReg.constprop.0.isra.0+0x2d6>
    142e:	8009a783          	lw	a5,-2048(s3) # 40010800 <_eusrstack+0x2000b800>
    1432:	ff100ab7          	lui	s5,0xff100
    1436:	1afd                	addi	s5,s5,-1 # ff0fffff <_eusrstack+0xdf0fafff>
    1438:	0157f7b3          	and	a5,a5,s5
    143c:	00800737          	lui	a4,0x800
    1440:	8fd9                	or	a5,a5,a4
    1442:	80f9a023          	sw	a5,-2048(s3)
    1446:	80098993          	addi	s3,s3,-2048
    144a:	0001                	nop
    144c:	0001                	nop
    144e:	0001                	nop
    1450:	04000593          	li	a1,64
    1454:	854e                	mv	a0,s3
    1456:	2a6030ef          	jal	ra,46fc <GPIO_SetBits>
    145a:	0001                	nop
    145c:	0001                	nop
    145e:	0001                	nop
    1460:	02000593          	li	a1,32
    1464:	854e                	mv	a0,s3
    1466:	28c030ef          	jal	ra,46f2 <GPIO_ReadInputDataBit>
    146a:	84aa                	mv	s1,a0
    146c:	04000593          	li	a1,64
    1470:	854e                	mv	a0,s3
    1472:	298030ef          	jal	ra,470a <GPIO_ResetBits>
    1476:	0001                	nop
    1478:	0001                	nop
    147a:	0001                	nop
    147c:	02000593          	li	a1,32
    1480:	854e                	mv	a0,s3
    1482:	27a030ef          	jal	ra,46fc <GPIO_SetBits>
    1486:	0e049f63          	bnez	s1,1584 <IIC_ReadReg.constprop.0.isra.0+0x466>
    148a:	0a0b0c63          	beqz	s6,1542 <IIC_ReadReg.constprop.0.isra.0+0x424>
    148e:	9b52                	add	s6,s6,s4
    1490:	400119b7          	lui	s3,0x40011
    1494:	00800c37          	lui	s8,0x800
    1498:	00300bb7          	lui	s7,0x300
    149c:	8009a783          	lw	a5,-2048(s3) # 40010800 <_eusrstack+0x2000b800>
    14a0:	80098913          	addi	s2,s3,-2048
    14a4:	44a1                	li	s1,8
    14a6:	0157f7b3          	and	a5,a5,s5
    14aa:	0187e7b3          	or	a5,a5,s8
    14ae:	80f9a023          	sw	a5,-2048(s3)
    14b2:	4401                	li	s0,0
    14b4:	04000593          	li	a1,64
    14b8:	854a                	mv	a0,s2
    14ba:	242030ef          	jal	ra,46fc <GPIO_SetBits>
    14be:	0001                	nop
    14c0:	0001                	nop
    14c2:	0001                	nop
    14c4:	02000593          	li	a1,32
    14c8:	854a                	mv	a0,s2
    14ca:	228030ef          	jal	ra,46f2 <GPIO_ReadInputDataBit>
    14ce:	87aa                	mv	a5,a0
    14d0:	04000593          	li	a1,64
    14d4:	854a                	mv	a0,s2
    14d6:	0406                	slli	s0,s0,0x1
    14d8:	8c5d                	or	s0,s0,a5
    14da:	230030ef          	jal	ra,470a <GPIO_ResetBits>
    14de:	0001                	nop
    14e0:	0001                	nop
    14e2:	0001                	nop
    14e4:	14fd                	addi	s1,s1,-1
    14e6:	f4f9                	bnez	s1,14b4 <IIC_ReadReg.constprop.0.isra.0+0x396>
    14e8:	008a0023          	sb	s0,0(s4)
    14ec:	02000593          	li	a1,32
    14f0:	80098513          	addi	a0,s3,-2048
    14f4:	216030ef          	jal	ra,470a <GPIO_ResetBits>
    14f8:	8009a783          	lw	a5,-2048(s3)
    14fc:	80098413          	addi	s0,s3,-2048
    1500:	0157f7b3          	and	a5,a5,s5
    1504:	0177e7b3          	or	a5,a5,s7
    1508:	80f9a023          	sw	a5,-2048(s3)
    150c:	0001                	nop
    150e:	0001                	nop
    1510:	0001                	nop
    1512:	04000593          	li	a1,64
    1516:	8522                	mv	a0,s0
    1518:	1e4030ef          	jal	ra,46fc <GPIO_SetBits>
    151c:	0001                	nop
    151e:	0001                	nop
    1520:	0001                	nop
    1522:	04000593          	li	a1,64
    1526:	8522                	mv	a0,s0
    1528:	1e2030ef          	jal	ra,470a <GPIO_ResetBits>
    152c:	0001                	nop
    152e:	0001                	nop
    1530:	0001                	nop
    1532:	02000593          	li	a1,32
    1536:	0a05                	addi	s4,s4,1
    1538:	8522                	mv	a0,s0
    153a:	1c2030ef          	jal	ra,46fc <GPIO_SetBits>
    153e:	f56a1fe3          	bne	s4,s6,149c <IIC_ReadReg.constprop.0.isra.0+0x37e>
    1542:	40011737          	lui	a4,0x40011
    1546:	80072783          	lw	a5,-2048(a4) # 40010800 <_eusrstack+0x2000b800>
    154a:	ff1006b7          	lui	a3,0xff100
    154e:	16fd                	addi	a3,a3,-1 # ff0fffff <_eusrstack+0xdf0fafff>
    1550:	8ff5                	and	a5,a5,a3
    1552:	003006b7          	lui	a3,0x300
    1556:	80070413          	addi	s0,a4,-2048
    155a:	8fd5                	or	a5,a5,a3
    155c:	8522                	mv	a0,s0
    155e:	80f72023          	sw	a5,-2048(a4)
    1562:	02000593          	li	a1,32
    1566:	1a4030ef          	jal	ra,470a <GPIO_ResetBits>
    156a:	04000593          	li	a1,64
    156e:	8522                	mv	a0,s0
    1570:	18c030ef          	jal	ra,46fc <GPIO_SetBits>
    1574:	0001                	nop
    1576:	0001                	nop
    1578:	0001                	nop
    157a:	02000593          	li	a1,32
    157e:	8522                	mv	a0,s0
    1580:	17c030ef          	jal	ra,46fc <GPIO_SetBits>
    1584:	bbdfe06f          	j	140 <__riscv_restore_10>

00001588 <IIC_ReadReg.isra.0>:
    1588:	b81fe2ef          	jal	t0,108 <__riscv_save_10>
    158c:	842a                	mv	s0,a0
    158e:	8a2e                	mv	s4,a1
    1590:	8b32                	mv	s6,a2
    1592:	d47fe0ef          	jal	ra,2d8 <IIC_Start>
    1596:	0d000513          	li	a0,208
    159a:	da1fe0ef          	jal	ra,33a <IIC_SendByte>
    159e:	dfffe0ef          	jal	ra,39c <IIC_WaitAck>
    15a2:	12051c63          	bnez	a0,16da <IIC_ReadReg.isra.0+0x152>
    15a6:	00845513          	srli	a0,s0,0x8
    15aa:	d91fe0ef          	jal	ra,33a <IIC_SendByte>
    15ae:	deffe0ef          	jal	ra,39c <IIC_WaitAck>
    15b2:	12051463          	bnez	a0,16da <IIC_ReadReg.isra.0+0x152>
    15b6:	0ff47513          	zext.b	a0,s0
    15ba:	d81fe0ef          	jal	ra,33a <IIC_SendByte>
    15be:	ddffe0ef          	jal	ra,39c <IIC_WaitAck>
    15c2:	10051c63          	bnez	a0,16da <IIC_ReadReg.isra.0+0x152>
    15c6:	d13fe0ef          	jal	ra,2d8 <IIC_Start>
    15ca:	0d100513          	li	a0,209
    15ce:	d6dfe0ef          	jal	ra,33a <IIC_SendByte>
    15d2:	dcbfe0ef          	jal	ra,39c <IIC_WaitAck>
    15d6:	10051263          	bnez	a0,16da <IIC_ReadReg.isra.0+0x152>
    15da:	0a0b0f63          	beqz	s6,1698 <IIC_ReadReg.isra.0+0x110>
    15de:	ff100ab7          	lui	s5,0xff100
    15e2:	9b52                	add	s6,s6,s4
    15e4:	400119b7          	lui	s3,0x40011
    15e8:	1afd                	addi	s5,s5,-1 # ff0fffff <_eusrstack+0xdf0fafff>
    15ea:	00800c37          	lui	s8,0x800
    15ee:	00300bb7          	lui	s7,0x300
    15f2:	8009a783          	lw	a5,-2048(s3) # 40010800 <_eusrstack+0x2000b800>
    15f6:	80098913          	addi	s2,s3,-2048
    15fa:	4401                	li	s0,0
    15fc:	0157f7b3          	and	a5,a5,s5
    1600:	0187e7b3          	or	a5,a5,s8
    1604:	80f9a023          	sw	a5,-2048(s3)
    1608:	44a1                	li	s1,8
    160a:	04000593          	li	a1,64
    160e:	854a                	mv	a0,s2
    1610:	0ec030ef          	jal	ra,46fc <GPIO_SetBits>
    1614:	0001                	nop
    1616:	0001                	nop
    1618:	0001                	nop
    161a:	02000593          	li	a1,32
    161e:	854a                	mv	a0,s2
    1620:	0d2030ef          	jal	ra,46f2 <GPIO_ReadInputDataBit>
    1624:	87aa                	mv	a5,a0
    1626:	04000593          	li	a1,64
    162a:	854a                	mv	a0,s2
    162c:	0406                	slli	s0,s0,0x1
    162e:	8c5d                	or	s0,s0,a5
    1630:	0da030ef          	jal	ra,470a <GPIO_ResetBits>
    1634:	0001                	nop
    1636:	0001                	nop
    1638:	0001                	nop
    163a:	14fd                	addi	s1,s1,-1
    163c:	f4f9                	bnez	s1,160a <IIC_ReadReg.isra.0+0x82>
    163e:	008a0023          	sb	s0,0(s4)
    1642:	02000593          	li	a1,32
    1646:	80098513          	addi	a0,s3,-2048
    164a:	0c0030ef          	jal	ra,470a <GPIO_ResetBits>
    164e:	8009a783          	lw	a5,-2048(s3)
    1652:	80098413          	addi	s0,s3,-2048
    1656:	0157f7b3          	and	a5,a5,s5
    165a:	0177e7b3          	or	a5,a5,s7
    165e:	80f9a023          	sw	a5,-2048(s3)
    1662:	0001                	nop
    1664:	0001                	nop
    1666:	0001                	nop
    1668:	04000593          	li	a1,64
    166c:	8522                	mv	a0,s0
    166e:	08e030ef          	jal	ra,46fc <GPIO_SetBits>
    1672:	0001                	nop
    1674:	0001                	nop
    1676:	0001                	nop
    1678:	04000593          	li	a1,64
    167c:	8522                	mv	a0,s0
    167e:	08c030ef          	jal	ra,470a <GPIO_ResetBits>
    1682:	0001                	nop
    1684:	0001                	nop
    1686:	0001                	nop
    1688:	02000593          	li	a1,32
    168c:	0a05                	addi	s4,s4,1
    168e:	8522                	mv	a0,s0
    1690:	06c030ef          	jal	ra,46fc <GPIO_SetBits>
    1694:	f54b1fe3          	bne	s6,s4,15f2 <IIC_ReadReg.isra.0+0x6a>
    1698:	40011737          	lui	a4,0x40011
    169c:	80072783          	lw	a5,-2048(a4) # 40010800 <_eusrstack+0x2000b800>
    16a0:	ff1006b7          	lui	a3,0xff100
    16a4:	16fd                	addi	a3,a3,-1 # ff0fffff <_eusrstack+0xdf0fafff>
    16a6:	8ff5                	and	a5,a5,a3
    16a8:	003006b7          	lui	a3,0x300
    16ac:	80070413          	addi	s0,a4,-2048
    16b0:	8fd5                	or	a5,a5,a3
    16b2:	8522                	mv	a0,s0
    16b4:	80f72023          	sw	a5,-2048(a4)
    16b8:	02000593          	li	a1,32
    16bc:	04e030ef          	jal	ra,470a <GPIO_ResetBits>
    16c0:	04000593          	li	a1,64
    16c4:	8522                	mv	a0,s0
    16c6:	036030ef          	jal	ra,46fc <GPIO_SetBits>
    16ca:	0001                	nop
    16cc:	0001                	nop
    16ce:	0001                	nop
    16d0:	02000593          	li	a1,32
    16d4:	8522                	mv	a0,s0
    16d6:	026030ef          	jal	ra,46fc <GPIO_SetBits>
    16da:	a67fe06f          	j	140 <__riscv_restore_10>

000016de <IIC_WriteRegI.isra.0>:
    16de:	a2bfe2ef          	jal	t0,108 <__riscv_save_10>
    16e2:	40011ab7          	lui	s5,0x40011
    16e6:	842a                	mv	s0,a0
    16e8:	89ae                	mv	s3,a1
    16ea:	800a8513          	addi	a0,s5,-2048 # 40010800 <_eusrstack+0x2000b800>
    16ee:	02000593          	li	a1,32
    16f2:	00a030ef          	jal	ra,46fc <GPIO_SetBits>
    16f6:	04000593          	li	a1,64
    16fa:	800a8513          	addi	a0,s5,-2048
    16fe:	7ff020ef          	jal	ra,46fc <GPIO_SetBits>
    1702:	800aa783          	lw	a5,-2048(s5)
    1706:	ff100b37          	lui	s6,0xff100
    170a:	1b7d                	addi	s6,s6,-1 # ff0fffff <_eusrstack+0xdf0fafff>
    170c:	0167f7b3          	and	a5,a5,s6
    1710:	00300bb7          	lui	s7,0x300
    1714:	0177e7b3          	or	a5,a5,s7
    1718:	80faa023          	sw	a5,-2048(s5)
    171c:	800a8913          	addi	s2,s5,-2048
    1720:	0001                	nop
    1722:	0001                	nop
    1724:	0001                	nop
    1726:	02000593          	li	a1,32
    172a:	854a                	mv	a0,s2
    172c:	7df020ef          	jal	ra,470a <GPIO_ResetBits>
    1730:	0001                	nop
    1732:	0001                	nop
    1734:	0001                	nop
    1736:	04000593          	li	a1,64
    173a:	854a                	mv	a0,s2
    173c:	7cf020ef          	jal	ra,470a <GPIO_ResetBits>
    1740:	0001                	nop
    1742:	0001                	nop
    1744:	0001                	nop
    1746:	800aa783          	lw	a5,-2048(s5)
    174a:	4a21                	li	s4,8
    174c:	0d000493          	li	s1,208
    1750:	0167f7b3          	and	a5,a5,s6
    1754:	0177e7b3          	or	a5,a5,s7
    1758:	80faa023          	sw	a5,-2048(s5)
    175c:	0074d613          	srli	a2,s1,0x7
    1760:	02000593          	li	a1,32
    1764:	854a                	mv	a0,s2
    1766:	7a9020ef          	jal	ra,470e <GPIO_WriteBit>
    176a:	0001                	nop
    176c:	0001                	nop
    176e:	0001                	nop
    1770:	04000593          	li	a1,64
    1774:	854a                	mv	a0,s2
    1776:	787020ef          	jal	ra,46fc <GPIO_SetBits>
    177a:	0001                	nop
    177c:	0001                	nop
    177e:	0001                	nop
    1780:	04000593          	li	a1,64
    1784:	854a                	mv	a0,s2
    1786:	0486                	slli	s1,s1,0x1
    1788:	1a7d                	addi	s4,s4,-1
    178a:	781020ef          	jal	ra,470a <GPIO_ResetBits>
    178e:	0ff4f493          	zext.b	s1,s1
    1792:	fc0a15e3          	bnez	s4,175c <IIC_WriteRegI.isra.0+0x7e>
    1796:	800aa783          	lw	a5,-2048(s5)
    179a:	ff100a37          	lui	s4,0xff100
    179e:	1a7d                	addi	s4,s4,-1 # ff0fffff <_eusrstack+0xdf0fafff>
    17a0:	0147f7b3          	and	a5,a5,s4
    17a4:	00800737          	lui	a4,0x800
    17a8:	8fd9                	or	a5,a5,a4
    17aa:	80faa023          	sw	a5,-2048(s5)
    17ae:	800a8913          	addi	s2,s5,-2048
    17b2:	0001                	nop
    17b4:	0001                	nop
    17b6:	0001                	nop
    17b8:	04000593          	li	a1,64
    17bc:	854a                	mv	a0,s2
    17be:	73f020ef          	jal	ra,46fc <GPIO_SetBits>
    17c2:	0001                	nop
    17c4:	0001                	nop
    17c6:	0001                	nop
    17c8:	02000593          	li	a1,32
    17cc:	854a                	mv	a0,s2
    17ce:	725020ef          	jal	ra,46f2 <GPIO_ReadInputDataBit>
    17d2:	84aa                	mv	s1,a0
    17d4:	04000593          	li	a1,64
    17d8:	854a                	mv	a0,s2
    17da:	731020ef          	jal	ra,470a <GPIO_ResetBits>
    17de:	0001                	nop
    17e0:	0001                	nop
    17e2:	0001                	nop
    17e4:	02000593          	li	a1,32
    17e8:	854a                	mv	a0,s2
    17ea:	713020ef          	jal	ra,46fc <GPIO_SetBits>
    17ee:	24049d63          	bnez	s1,1a48 <IIC_WriteRegI.isra.0+0x36a>
    17f2:	800aa783          	lw	a5,-2048(s5)
    17f6:	00300737          	lui	a4,0x300
    17fa:	00845493          	srli	s1,s0,0x8
    17fe:	0147f7b3          	and	a5,a5,s4
    1802:	8fd9                	or	a5,a5,a4
    1804:	80faa023          	sw	a5,-2048(s5)
    1808:	4a21                	li	s4,8
    180a:	40011ab7          	lui	s5,0x40011
    180e:	0074d613          	srli	a2,s1,0x7
    1812:	02000593          	li	a1,32
    1816:	854a                	mv	a0,s2
    1818:	6f7020ef          	jal	ra,470e <GPIO_WriteBit>
    181c:	0001                	nop
    181e:	0001                	nop
    1820:	0001                	nop
    1822:	04000593          	li	a1,64
    1826:	854a                	mv	a0,s2
    1828:	6d5020ef          	jal	ra,46fc <GPIO_SetBits>
    182c:	0001                	nop
    182e:	0001                	nop
    1830:	0001                	nop
    1832:	04000593          	li	a1,64
    1836:	854a                	mv	a0,s2
    1838:	0486                	slli	s1,s1,0x1
    183a:	1a7d                	addi	s4,s4,-1
    183c:	6cf020ef          	jal	ra,470a <GPIO_ResetBits>
    1840:	0ff4f493          	zext.b	s1,s1
    1844:	fc0a15e3          	bnez	s4,180e <IIC_WriteRegI.isra.0+0x130>
    1848:	800aa783          	lw	a5,-2048(s5) # 40010800 <_eusrstack+0x2000b800>
    184c:	ff100937          	lui	s2,0xff100
    1850:	197d                	addi	s2,s2,-1 # ff0fffff <_eusrstack+0xdf0fafff>
    1852:	0127f7b3          	and	a5,a5,s2
    1856:	00800737          	lui	a4,0x800
    185a:	8fd9                	or	a5,a5,a4
    185c:	80faa023          	sw	a5,-2048(s5)
    1860:	800a8493          	addi	s1,s5,-2048
    1864:	0001                	nop
    1866:	0001                	nop
    1868:	0001                	nop
    186a:	04000593          	li	a1,64
    186e:	8526                	mv	a0,s1
    1870:	68d020ef          	jal	ra,46fc <GPIO_SetBits>
    1874:	0001                	nop
    1876:	0001                	nop
    1878:	0001                	nop
    187a:	02000593          	li	a1,32
    187e:	8526                	mv	a0,s1
    1880:	673020ef          	jal	ra,46f2 <GPIO_ReadInputDataBit>
    1884:	8a2a                	mv	s4,a0
    1886:	04000593          	li	a1,64
    188a:	8526                	mv	a0,s1
    188c:	67f020ef          	jal	ra,470a <GPIO_ResetBits>
    1890:	0001                	nop
    1892:	0001                	nop
    1894:	0001                	nop
    1896:	02000593          	li	a1,32
    189a:	8526                	mv	a0,s1
    189c:	661020ef          	jal	ra,46fc <GPIO_SetBits>
    18a0:	1a0a1463          	bnez	s4,1a48 <IIC_WriteRegI.isra.0+0x36a>
    18a4:	800aa783          	lw	a5,-2048(s5)
    18a8:	00300737          	lui	a4,0x300
    18ac:	0ff47413          	zext.b	s0,s0
    18b0:	0127f7b3          	and	a5,a5,s2
    18b4:	8fd9                	or	a5,a5,a4
    18b6:	80faa023          	sw	a5,-2048(s5)
    18ba:	4921                	li	s2,8
    18bc:	40011a37          	lui	s4,0x40011
    18c0:	00745613          	srli	a2,s0,0x7
    18c4:	02000593          	li	a1,32
    18c8:	8526                	mv	a0,s1
    18ca:	645020ef          	jal	ra,470e <GPIO_WriteBit>
    18ce:	0001                	nop
    18d0:	0001                	nop
    18d2:	0001                	nop
    18d4:	04000593          	li	a1,64
    18d8:	8526                	mv	a0,s1
    18da:	623020ef          	jal	ra,46fc <GPIO_SetBits>
    18de:	0001                	nop
    18e0:	0001                	nop
    18e2:	0001                	nop
    18e4:	04000593          	li	a1,64
    18e8:	8526                	mv	a0,s1
    18ea:	0406                	slli	s0,s0,0x1
    18ec:	197d                	addi	s2,s2,-1
    18ee:	61d020ef          	jal	ra,470a <GPIO_ResetBits>
    18f2:	0ff47413          	zext.b	s0,s0
    18f6:	fc0915e3          	bnez	s2,18c0 <IIC_WriteRegI.isra.0+0x1e2>
    18fa:	800a2783          	lw	a5,-2048(s4) # 40010800 <_eusrstack+0x2000b800>
    18fe:	ff100ab7          	lui	s5,0xff100
    1902:	1afd                	addi	s5,s5,-1 # ff0fffff <_eusrstack+0xdf0fafff>
    1904:	0157f7b3          	and	a5,a5,s5
    1908:	00800737          	lui	a4,0x800
    190c:	8fd9                	or	a5,a5,a4
    190e:	80fa2023          	sw	a5,-2048(s4)
    1912:	800a0a13          	addi	s4,s4,-2048
    1916:	0001                	nop
    1918:	0001                	nop
    191a:	0001                	nop
    191c:	04000593          	li	a1,64
    1920:	8552                	mv	a0,s4
    1922:	5db020ef          	jal	ra,46fc <GPIO_SetBits>
    1926:	0001                	nop
    1928:	0001                	nop
    192a:	0001                	nop
    192c:	02000593          	li	a1,32
    1930:	8552                	mv	a0,s4
    1932:	5c1020ef          	jal	ra,46f2 <GPIO_ReadInputDataBit>
    1936:	84aa                	mv	s1,a0
    1938:	04000593          	li	a1,64
    193c:	8552                	mv	a0,s4
    193e:	5cd020ef          	jal	ra,470a <GPIO_ResetBits>
    1942:	0001                	nop
    1944:	0001                	nop
    1946:	0001                	nop
    1948:	02000593          	li	a1,32
    194c:	8552                	mv	a0,s4
    194e:	5af020ef          	jal	ra,46fc <GPIO_SetBits>
    1952:	0e049b63          	bnez	s1,1a48 <IIC_WriteRegI.isra.0+0x36a>
    1956:	4b11                	li	s6,4
    1958:	40011a37          	lui	s4,0x40011
    195c:	00300c37          	lui	s8,0x300
    1960:	00800bb7          	lui	s7,0x800
    1964:	800a2783          	lw	a5,-2048(s4) # 40010800 <_eusrstack+0x2000b800>
    1968:	0ff9f413          	zext.b	s0,s3
    196c:	800a0913          	addi	s2,s4,-2048
    1970:	0157f7b3          	and	a5,a5,s5
    1974:	0187e7b3          	or	a5,a5,s8
    1978:	80fa2023          	sw	a5,-2048(s4)
    197c:	44a1                	li	s1,8
    197e:	00745613          	srli	a2,s0,0x7
    1982:	02000593          	li	a1,32
    1986:	854a                	mv	a0,s2
    1988:	587020ef          	jal	ra,470e <GPIO_WriteBit>
    198c:	0001                	nop
    198e:	0001                	nop
    1990:	0001                	nop
    1992:	04000593          	li	a1,64
    1996:	854a                	mv	a0,s2
    1998:	565020ef          	jal	ra,46fc <GPIO_SetBits>
    199c:	0001                	nop
    199e:	0001                	nop
    19a0:	0001                	nop
    19a2:	04000593          	li	a1,64
    19a6:	854a                	mv	a0,s2
    19a8:	0406                	slli	s0,s0,0x1
    19aa:	14fd                	addi	s1,s1,-1
    19ac:	55f020ef          	jal	ra,470a <GPIO_ResetBits>
    19b0:	0ff47413          	zext.b	s0,s0
    19b4:	f4e9                	bnez	s1,197e <IIC_WriteRegI.isra.0+0x2a0>
    19b6:	800a2783          	lw	a5,-2048(s4)
    19ba:	800a0413          	addi	s0,s4,-2048
    19be:	0157f7b3          	and	a5,a5,s5
    19c2:	0177e7b3          	or	a5,a5,s7
    19c6:	80fa2023          	sw	a5,-2048(s4)
    19ca:	0001                	nop
    19cc:	0001                	nop
    19ce:	0001                	nop
    19d0:	04000593          	li	a1,64
    19d4:	8522                	mv	a0,s0
    19d6:	527020ef          	jal	ra,46fc <GPIO_SetBits>
    19da:	0001                	nop
    19dc:	0001                	nop
    19de:	0001                	nop
    19e0:	02000593          	li	a1,32
    19e4:	8522                	mv	a0,s0
    19e6:	50d020ef          	jal	ra,46f2 <GPIO_ReadInputDataBit>
    19ea:	84aa                	mv	s1,a0
    19ec:	04000593          	li	a1,64
    19f0:	8522                	mv	a0,s0
    19f2:	519020ef          	jal	ra,470a <GPIO_ResetBits>
    19f6:	0001                	nop
    19f8:	0001                	nop
    19fa:	0001                	nop
    19fc:	02000593          	li	a1,32
    1a00:	8522                	mv	a0,s0
    1a02:	4fb020ef          	jal	ra,46fc <GPIO_SetBits>
    1a06:	e0a9                	bnez	s1,1a48 <IIC_WriteRegI.isra.0+0x36a>
    1a08:	1b7d                	addi	s6,s6,-1
    1a0a:	0089d993          	srli	s3,s3,0x8
    1a0e:	f40b1be3          	bnez	s6,1964 <IIC_WriteRegI.isra.0+0x286>
    1a12:	800a2783          	lw	a5,-2048(s4)
    1a16:	00300737          	lui	a4,0x300
    1a1a:	8522                	mv	a0,s0
    1a1c:	0157f7b3          	and	a5,a5,s5
    1a20:	8fd9                	or	a5,a5,a4
    1a22:	80fa2023          	sw	a5,-2048(s4)
    1a26:	02000593          	li	a1,32
    1a2a:	4e1020ef          	jal	ra,470a <GPIO_ResetBits>
    1a2e:	04000593          	li	a1,64
    1a32:	8522                	mv	a0,s0
    1a34:	4c9020ef          	jal	ra,46fc <GPIO_SetBits>
    1a38:	0001                	nop
    1a3a:	0001                	nop
    1a3c:	0001                	nop
    1a3e:	02000593          	li	a1,32
    1a42:	8522                	mv	a0,s0
    1a44:	4b9020ef          	jal	ra,46fc <GPIO_SetBits>
    1a48:	ef8fe06f          	j	140 <__riscv_restore_10>

00001a4c <GPIO_OUT_INIT>:
    1a4c:	ee4fe2ef          	jal	t0,130 <__riscv_save_0>
    1a50:	1141                	addi	sp,sp,-16
    1a52:	47c1                	li	a5,16
    1a54:	c63e                	sw	a5,12(sp)
    1a56:	4785                	li	a5,1
    1a58:	842a                	mv	s0,a0
    1a5a:	c43e                	sw	a5,8(sp)
    1a5c:	c22e                	sw	a1,4(sp)
    1a5e:	4b1020ef          	jal	ra,470e <GPIO_WriteBit>
    1a62:	004c                	addi	a1,sp,4
    1a64:	8522                	mv	a0,s0
    1a66:	2ff020ef          	jal	ra,4564 <GPIO_Init>
    1a6a:	0141                	addi	sp,sp,16
    1a6c:	ee8fe06f          	j	154 <__riscv_restore_0>

00001a70 <WS2812_SetColor>:
    1a70:	0522                	slli	a0,a0,0x8
    1a72:	4661                	li	a2,24
    1a74:	400115b7          	lui	a1,0x40011
    1a78:	4785                	li	a5,1
    1a7a:	a805                	j	1aaa <WS2812_SetColor+0x3a>
    1a7c:	cb1c                	sw	a5,16(a4)
    1a7e:	cb1c                	sw	a5,16(a4)
    1a80:	cb1c                	sw	a5,16(a4)
    1a82:	cb1c                	sw	a5,16(a4)
    1a84:	cb1c                	sw	a5,16(a4)
    1a86:	cb1c                	sw	a5,16(a4)
    1a88:	cb1c                	sw	a5,16(a4)
    1a8a:	cb1c                	sw	a5,16(a4)
    1a8c:	cb1c                	sw	a5,16(a4)
    1a8e:	cb1c                	sw	a5,16(a4)
    1a90:	cb5c                	sw	a5,20(a4)
    1a92:	cb5c                	sw	a5,20(a4)
    1a94:	cb5c                	sw	a5,20(a4)
    1a96:	cb5c                	sw	a5,20(a4)
    1a98:	cb5c                	sw	a5,20(a4)
    1a9a:	cb5c                	sw	a5,20(a4)
    1a9c:	cb5c                	sw	a5,20(a4)
    1a9e:	cb5c                	sw	a5,20(a4)
    1aa0:	cb5c                	sw	a5,20(a4)
    1aa2:	cb5c                	sw	a5,20(a4)
    1aa4:	167d                	addi	a2,a2,-1
    1aa6:	0506                	slli	a0,a0,0x1
    1aa8:	ca0d                	beqz	a2,1ada <WS2812_SetColor+0x6a>
    1aaa:	80058713          	addi	a4,a1,-2048 # 40010800 <_eusrstack+0x2000b800>
    1aae:	fc0557e3          	bgez	a0,1a7c <WS2812_SetColor+0xc>
    1ab2:	cb1c                	sw	a5,16(a4)
    1ab4:	cb1c                	sw	a5,16(a4)
    1ab6:	cb1c                	sw	a5,16(a4)
    1ab8:	cb1c                	sw	a5,16(a4)
    1aba:	cb1c                	sw	a5,16(a4)
    1abc:	cb1c                	sw	a5,16(a4)
    1abe:	cb1c                	sw	a5,16(a4)
    1ac0:	cb1c                	sw	a5,16(a4)
    1ac2:	cb1c                	sw	a5,16(a4)
    1ac4:	cb1c                	sw	a5,16(a4)
    1ac6:	cb1c                	sw	a5,16(a4)
    1ac8:	cb1c                	sw	a5,16(a4)
    1aca:	cb1c                	sw	a5,16(a4)
    1acc:	cb1c                	sw	a5,16(a4)
    1ace:	cb1c                	sw	a5,16(a4)
    1ad0:	cb1c                	sw	a5,16(a4)
    1ad2:	cb5c                	sw	a5,20(a4)
    1ad4:	167d                	addi	a2,a2,-1
    1ad6:	0506                	slli	a0,a0,0x1
    1ad8:	fa69                	bnez	a2,1aaa <WS2812_SetColor+0x3a>
    1ada:	400117b7          	lui	a5,0x40011
    1ade:	4705                	li	a4,1
    1ae0:	80e7aa23          	sw	a4,-2028(a5) # 40010814 <_eusrstack+0x2000b814>
    1ae4:	12c00513          	li	a0,300
    1ae8:	0080306f          	j	4af0 <Delay_Us>

00001aec <PD_PHY_Reset>:
    1aec:	e44fe2ef          	jal	t0,130 <__riscv_save_0>
    1af0:	842a                	mv	s0,a0
    1af2:	6915                	lui	s2,0x5
    1af4:	6515                	lui	a0,0x5
    1af6:	3d090593          	addi	a1,s2,976 # 53d0 <memcpy+0x214>
    1afa:	3d450513          	addi	a0,a0,980 # 53d4 <memcpy+0x218>
    1afe:	650030ef          	jal	ra,514e <printf>
    1b02:	400114b7          	lui	s1,0x40011
    1b06:	6585                	lui	a1,0x1
    1b08:	c0048513          	addi	a0,s1,-1024 # 40010c00 <_eusrstack+0x2000bc00>
    1b0c:	4605                	li	a2,1
    1b0e:	80058593          	addi	a1,a1,-2048 # 800 <__stack_size>
    1b12:	3fd020ef          	jal	ra,470e <GPIO_WriteBit>
    1b16:	4605                	li	a2,1
    1b18:	c0048513          	addi	a0,s1,-1024
    1b1c:	6585                	lui	a1,0x1
    1b1e:	3f1020ef          	jal	ra,470e <GPIO_WriteBit>
    1b22:	6515                	lui	a0,0x5
    1b24:	3d090593          	addi	a1,s2,976
    1b28:	3e850513          	addi	a0,a0,1000 # 53e8 <memcpy+0x22c>
    1b2c:	622030ef          	jal	ra,514e <printf>
    1b30:	80048513          	addi	a0,s1,-2048
    1b34:	4605                	li	a2,1
    1b36:	4589                	li	a1,2
    1b38:	3d7020ef          	jal	ra,470e <GPIO_WriteBit>
    1b3c:	400134b7          	lui	s1,0x40013
    1b40:	4601                	li	a2,0
    1b42:	c0048513          	addi	a0,s1,-1024 # 40012c00 <_eusrstack+0x2000dc00>
    1b46:	4585                	li	a1,1
    1b48:	8001ac23          	sw	zero,-2024(gp) # 20000038 <TIM1_CNT>
    1b4c:	689020ef          	jal	ra,49d4 <TIM_ITConfig>
    1b50:	4581                	li	a1,0
    1b52:	c0048513          	addi	a0,s1,-1024
    1b56:	691020ef          	jal	ra,49e6 <TIM_SetCounter>
    1b5a:	4785                	li	a5,1
    1b5c:	c01c                	sw	a5,0(s0)
    1b5e:	c05c                	sw	a5,4(s0)
    1b60:	00041423          	sh	zero,8(s0)
    1b64:	00040523          	sb	zero,10(s0)
    1b68:	00042823          	sw	zero,16(s0)
    1b6c:	c45c                	sw	a5,12(s0)
    1b6e:	00042a23          	sw	zero,20(s0)
    1b72:	02042223          	sw	zero,36(s0)
    1b76:	02042023          	sw	zero,32(s0)
    1b7a:	02042623          	sw	zero,44(s0)
    1b7e:	02041423          	sh	zero,40(s0)
    1b82:	02040823          	sb	zero,48(s0)
    1b86:	dcefe06f          	j	154 <__riscv_restore_0>

00001b8a <PD_Listen_Default>:
    1b8a:	da6fe2ef          	jal	t0,130 <__riscv_save_0>
    1b8e:	4d9c                	lw	a5,24(a1)
    1b90:	4735                	li	a4,13
    1b92:	842e                	mv	s0,a1
    1b94:	239c                	lbu	a5,0(a5)
    1b96:	8bfd                	andi	a5,a5,31
    1b98:	0ae78563          	beq	a5,a4,1c42 <PD_Listen_Default+0xb8>
    1b9c:	0a900613          	li	a2,169
    1ba0:	4581                	li	a1,0
    1ba2:	4501                	li	a0,0
    1ba4:	dbcfe0ef          	jal	ra,160 <PD_Send>
    1ba8:	6915                	lui	s2,0x5
    1baa:	6515                	lui	a0,0x5
    1bac:	3d090593          	addi	a1,s2,976 # 53d0 <memcpy+0x214>
    1bb0:	3d450513          	addi	a0,a0,980 # 53d4 <memcpy+0x218>
    1bb4:	59a030ef          	jal	ra,514e <printf>
    1bb8:	400114b7          	lui	s1,0x40011
    1bbc:	6585                	lui	a1,0x1
    1bbe:	c0048513          	addi	a0,s1,-1024 # 40010c00 <_eusrstack+0x2000bc00>
    1bc2:	4605                	li	a2,1
    1bc4:	80058593          	addi	a1,a1,-2048 # 800 <__stack_size>
    1bc8:	347020ef          	jal	ra,470e <GPIO_WriteBit>
    1bcc:	4605                	li	a2,1
    1bce:	c0048513          	addi	a0,s1,-1024
    1bd2:	6585                	lui	a1,0x1
    1bd4:	33b020ef          	jal	ra,470e <GPIO_WriteBit>
    1bd8:	6515                	lui	a0,0x5
    1bda:	3d090593          	addi	a1,s2,976
    1bde:	3e850513          	addi	a0,a0,1000 # 53e8 <memcpy+0x22c>
    1be2:	56c030ef          	jal	ra,514e <printf>
    1be6:	80048513          	addi	a0,s1,-2048
    1bea:	4605                	li	a2,1
    1bec:	4589                	li	a1,2
    1bee:	321020ef          	jal	ra,470e <GPIO_WriteBit>
    1bf2:	400134b7          	lui	s1,0x40013
    1bf6:	4585                	li	a1,1
    1bf8:	c0048513          	addi	a0,s1,-1024 # 40012c00 <_eusrstack+0x2000dc00>
    1bfc:	4601                	li	a2,0
    1bfe:	8001ac23          	sw	zero,-2024(gp) # 20000038 <TIM1_CNT>
    1c02:	5d3020ef          	jal	ra,49d4 <TIM_ITConfig>
    1c06:	c0048513          	addi	a0,s1,-1024
    1c0a:	4581                	li	a1,0
    1c0c:	5db020ef          	jal	ra,49e6 <TIM_SetCounter>
    1c10:	4785                	li	a5,1
    1c12:	c01c                	sw	a5,0(s0)
    1c14:	c05c                	sw	a5,4(s0)
    1c16:	00041423          	sh	zero,8(s0)
    1c1a:	00040523          	sb	zero,10(s0)
    1c1e:	00042823          	sw	zero,16(s0)
    1c22:	c45c                	sw	a5,12(s0)
    1c24:	00042a23          	sw	zero,20(s0)
    1c28:	02042223          	sw	zero,36(s0)
    1c2c:	02042023          	sw	zero,32(s0)
    1c30:	02042623          	sw	zero,44(s0)
    1c34:	02041423          	sh	zero,40(s0)
    1c38:	02040823          	sb	zero,48(s0)
    1c3c:	557d                	li	a0,-1
    1c3e:	d16fe06f          	j	154 <__riscv_restore_0>
    1c42:	400134b7          	lui	s1,0x40013
    1c46:	c0048513          	addi	a0,s1,-1024 # 40012c00 <_eusrstack+0x2000dc00>
    1c4a:	4601                	li	a2,0
    1c4c:	4585                	li	a1,1
    1c4e:	bf45                	j	1bfe <PD_Listen_Default+0x74>

00001c50 <PD_Send_Retry>:
    1c50:	cc6fe2ef          	jal	t0,116 <__riscv_save_4>
    1c54:	4298                	lw	a4,0(a3)
    1c56:	8936                	mv	s2,a3
    1c58:	8a32                	mv	s4,a2
    1c5a:	04056793          	ori	a5,a0,64
    1c5e:	c319                	beqz	a4,1c64 <PD_Send_Retry+0x14>
    1c60:	06056793          	ori	a5,a0,96
    1c64:	00492703          	lw	a4,4(s2)
    1c68:	c319                	beqz	a4,1c6e <PD_Send_Retry+0x1e>
    1c6a:	1007e793          	ori	a5,a5,256
    1c6e:	00894683          	lbu	a3,8(s2)
    1c72:	01c92603          	lw	a2,28(s2)
    1c76:	002a1713          	slli	a4,s4,0x2
    1c7a:	06a6                	slli	a3,a3,0x9
    1c7c:	8fd5                	or	a5,a5,a3
    1c7e:	07c2                	slli	a5,a5,0x10
    1c80:	83c1                	srli	a5,a5,0x10
    1c82:	0087d693          	srli	a3,a5,0x8
    1c86:	a21e                	sh	a5,0(a2)
    1c88:	00d767b3          	or	a5,a4,a3
    1c8c:	b21c                	sb	a5,1(a2)
    1c8e:	01c92503          	lw	a0,28(s2)
    1c92:	8652                	mv	a2,s4
    1c94:	498d                	li	s3,3
    1c96:	0509                	addi	a0,a0,2
    1c98:	524030ef          	jal	ra,51bc <memcpy>
    1c9c:	0a09                	addi	s4,s4,2
    1c9e:	400274b7          	lui	s1,0x40027
    1ca2:	4a99                	li	s5,6
    1ca4:	4b05                	li	s6,1
    1ca6:	01c92503          	lw	a0,28(s2)
    1caa:	4601                	li	a2,0
    1cac:	85d2                	mv	a1,s4
    1cae:	cb2fe0ef          	jal	ra,160 <PD_Send>
    1cb2:	0fa00413          	li	s0,250
    1cb6:	a021                	j	1cbe <PD_Send_Retry+0x6e>
    1cb8:	639020ef          	jal	ra,4af0 <Delay_Us>
    1cbc:	c81d                	beqz	s0,1cf2 <PD_Send_Retry+0xa2>
    1cbe:	349c                	lbu	a5,9(s1)
    1cc0:	4511                	li	a0,4
    1cc2:	147d                	addi	s0,s0,-1
    1cc4:	0207f793          	andi	a5,a5,32
    1cc8:	dbe5                	beqz	a5,1cb8 <PD_Send_Retry+0x68>
    1cca:	24ba                	lhu	a4,10(s1)
    1ccc:	349c                	lbu	a5,9(s1)
    1cce:	01071693          	slli	a3,a4,0x10
    1cd2:	0207e793          	ori	a5,a5,32
    1cd6:	b49c                	sb	a5,9(s1)
    1cd8:	82c1                	srli	a3,a3,0x10
    1cda:	cf01                	beqz	a4,1cf2 <PD_Send_Retry+0xa2>
    1cdc:	01569863          	bne	a3,s5,1cec <PD_Send_Retry+0x9c>
    1ce0:	01892703          	lw	a4,24(s2)
    1ce4:	231c                	lbu	a5,0(a4)
    1ce6:	8bfd                	andi	a5,a5,31
    1ce8:	01678b63          	beq	a5,s6,1cfe <PD_Send_Retry+0xae>
    1cec:	4551                	li	a0,20
    1cee:	603020ef          	jal	ra,4af0 <Delay_Us>
    1cf2:	19fd                	addi	s3,s3,-1
    1cf4:	fa0999e3          	bnez	s3,1ca6 <PD_Send_Retry+0x56>
    1cf8:	557d                	li	a0,-1
    1cfa:	c50fe06f          	j	14a <__riscv_restore_4>
    1cfe:	331c                	lbu	a5,1(a4)
    1d00:	00894703          	lbu	a4,8(s2)
    1d04:	8385                	srli	a5,a5,0x1
    1d06:	8b9d                	andi	a5,a5,7
    1d08:	fef712e3          	bne	a4,a5,1cec <PD_Send_Retry+0x9c>
    1d0c:	00170793          	addi	a5,a4,1 # 300001 <main.c.ab49d0c1+0x2f4999>
    1d10:	8b9d                	andi	a5,a5,7
    1d12:	00f90423          	sb	a5,8(s2)
    1d16:	4501                	li	a0,0
    1d18:	b7cd                	j	1cfa <PD_Send_Retry+0xaa>

00001d1a <PD_Send_Retry_Rst.part.0>:
    1d1a:	c16fe2ef          	jal	t0,130 <__riscv_save_0>
    1d1e:	842a                	mv	s0,a0
    1d20:	86aa                	mv	a3,a0
    1d22:	4601                	li	a2,0
    1d24:	4581                	li	a1,0
    1d26:	4535                	li	a0,13
    1d28:	3725                	jal	1c50 <PD_Send_Retry>
    1d2a:	c545                	beqz	a0,1dd2 <PD_Send_Retry_Rst.part.0+0xb8>
    1d2c:	0a900613          	li	a2,169
    1d30:	4581                	li	a1,0
    1d32:	4501                	li	a0,0
    1d34:	c2cfe0ef          	jal	ra,160 <PD_Send>
    1d38:	6915                	lui	s2,0x5
    1d3a:	6515                	lui	a0,0x5
    1d3c:	3d090593          	addi	a1,s2,976 # 53d0 <memcpy+0x214>
    1d40:	3d450513          	addi	a0,a0,980 # 53d4 <memcpy+0x218>
    1d44:	40a030ef          	jal	ra,514e <printf>
    1d48:	400114b7          	lui	s1,0x40011
    1d4c:	6585                	lui	a1,0x1
    1d4e:	c0048513          	addi	a0,s1,-1024 # 40010c00 <_eusrstack+0x2000bc00>
    1d52:	4605                	li	a2,1
    1d54:	80058593          	addi	a1,a1,-2048 # 800 <__stack_size>
    1d58:	1b7020ef          	jal	ra,470e <GPIO_WriteBit>
    1d5c:	4605                	li	a2,1
    1d5e:	c0048513          	addi	a0,s1,-1024
    1d62:	6585                	lui	a1,0x1
    1d64:	1ab020ef          	jal	ra,470e <GPIO_WriteBit>
    1d68:	6515                	lui	a0,0x5
    1d6a:	3d090593          	addi	a1,s2,976
    1d6e:	3e850513          	addi	a0,a0,1000 # 53e8 <memcpy+0x22c>
    1d72:	3dc030ef          	jal	ra,514e <printf>
    1d76:	80048513          	addi	a0,s1,-2048
    1d7a:	4605                	li	a2,1
    1d7c:	4589                	li	a1,2
    1d7e:	191020ef          	jal	ra,470e <GPIO_WriteBit>
    1d82:	400134b7          	lui	s1,0x40013
    1d86:	4585                	li	a1,1
    1d88:	c0048513          	addi	a0,s1,-1024 # 40012c00 <_eusrstack+0x2000dc00>
    1d8c:	4601                	li	a2,0
    1d8e:	8001ac23          	sw	zero,-2024(gp) # 20000038 <TIM1_CNT>
    1d92:	443020ef          	jal	ra,49d4 <TIM_ITConfig>
    1d96:	c0048513          	addi	a0,s1,-1024
    1d9a:	4581                	li	a1,0
    1d9c:	44b020ef          	jal	ra,49e6 <TIM_SetCounter>
    1da0:	4785                	li	a5,1
    1da2:	c01c                	sw	a5,0(s0)
    1da4:	c05c                	sw	a5,4(s0)
    1da6:	00041423          	sh	zero,8(s0)
    1daa:	00040523          	sb	zero,10(s0)
    1dae:	00042823          	sw	zero,16(s0)
    1db2:	c45c                	sw	a5,12(s0)
    1db4:	00042a23          	sw	zero,20(s0)
    1db8:	02042223          	sw	zero,36(s0)
    1dbc:	02042023          	sw	zero,32(s0)
    1dc0:	02042623          	sw	zero,44(s0)
    1dc4:	02041423          	sh	zero,40(s0)
    1dc8:	02040823          	sb	zero,48(s0)
    1dcc:	557d                	li	a0,-1
    1dce:	b86fe06f          	j	154 <__riscv_restore_0>
    1dd2:	400134b7          	lui	s1,0x40013
    1dd6:	c0048513          	addi	a0,s1,-1024 # 40012c00 <_eusrstack+0x2000dc00>
    1dda:	4601                	li	a2,0
    1ddc:	4585                	li	a1,1
    1dde:	bf45                	j	1d8e <PD_Send_Retry_Rst.part.0+0x74>

00001de0 <PD_Listen_Ready>:
    1de0:	b50fe2ef          	jal	t0,130 <__riscv_save_0>
    1de4:	4d98                	lw	a4,24(a1)
    1de6:	46b5                	li	a3,13
    1de8:	1101                	addi	sp,sp,-32
    1dea:	231c                	lbu	a5,0(a4)
    1dec:	842e                	mv	s0,a1
    1dee:	8bfd                	andi	a5,a5,31
    1df0:	02d78f63          	beq	a5,a3,1e2e <PD_Listen_Ready+0x4e>
    1df4:	46bd                	li	a3,15
    1df6:	08d79363          	bne	a5,a3,1e7c <PD_Listen_Ready+0x9c>
    1dfa:	2334                	lbu	a3,2(a4)
    1dfc:	235e                	lhu	a5,4(a4)
    1dfe:	6621                	lui	a2,0x8
    1e00:	8afd                	andi	a3,a3,31
    1e02:	8ed1                	or	a3,a3,a2
    1e04:	07c2                	slli	a5,a5,0x10
    1e06:	8fd5                	or	a5,a5,a3
    1e08:	c43e                	sw	a5,8(sp)
    1e0a:	2338                	lbu	a4,2(a4)
    1e0c:	4699                	li	a3,6
    1e0e:	8b7d                	andi	a4,a4,31
    1e10:	08d70d63          	beq	a4,a3,1eaa <PD_Listen_Ready+0xca>
    1e14:	0807e793          	ori	a5,a5,128
    1e18:	86ae                	mv	a3,a1
    1e1a:	4611                	li	a2,4
    1e1c:	002c                	addi	a1,sp,8
    1e1e:	453d                	li	a0,15
    1e20:	c43e                	sw	a5,8(sp)
    1e22:	353d                	jal	1c50 <PD_Send_Retry>
    1e24:	ed45                	bnez	a0,1edc <PD_Listen_Ready+0xfc>
    1e26:	4501                	li	a0,0
    1e28:	6105                	addi	sp,sp,32
    1e2a:	b2afe06f          	j	154 <__riscv_restore_0>
    1e2e:	400134b7          	lui	s1,0x40013
    1e32:	4601                	li	a2,0
    1e34:	4585                	li	a1,1
    1e36:	c0048513          	addi	a0,s1,-1024 # 40012c00 <_eusrstack+0x2000dc00>
    1e3a:	8001ac23          	sw	zero,-2024(gp) # 20000038 <TIM1_CNT>
    1e3e:	397020ef          	jal	ra,49d4 <TIM_ITConfig>
    1e42:	c0048513          	addi	a0,s1,-1024
    1e46:	4581                	li	a1,0
    1e48:	39f020ef          	jal	ra,49e6 <TIM_SetCounter>
    1e4c:	4785                	li	a5,1
    1e4e:	c01c                	sw	a5,0(s0)
    1e50:	c05c                	sw	a5,4(s0)
    1e52:	00041423          	sh	zero,8(s0)
    1e56:	00040523          	sb	zero,10(s0)
    1e5a:	00042823          	sw	zero,16(s0)
    1e5e:	c45c                	sw	a5,12(s0)
    1e60:	00042a23          	sw	zero,20(s0)
    1e64:	02042223          	sw	zero,36(s0)
    1e68:	02042023          	sw	zero,32(s0)
    1e6c:	02042623          	sw	zero,44(s0)
    1e70:	02041423          	sh	zero,40(s0)
    1e74:	02040823          	sb	zero,48(s0)
    1e78:	557d                	li	a0,-1
    1e7a:	b77d                	j	1e28 <PD_Listen_Ready+0x48>
    1e7c:	86ae                	mv	a3,a1
    1e7e:	4601                	li	a2,0
    1e80:	4581                	li	a1,0
    1e82:	4511                	li	a0,4
    1e84:	33f1                	jal	1c50 <PD_Send_Retry>
    1e86:	d145                	beqz	a0,1e26 <PD_Listen_Ready+0x46>
    1e88:	86a2                	mv	a3,s0
    1e8a:	4601                	li	a2,0
    1e8c:	4581                	li	a1,0
    1e8e:	4535                	li	a0,13
    1e90:	33c1                	jal	1c50 <PD_Send_Retry>
    1e92:	dd51                	beqz	a0,1e2e <PD_Listen_Ready+0x4e>
    1e94:	0a900613          	li	a2,169
    1e98:	4581                	li	a1,0
    1e9a:	4501                	li	a0,0
    1e9c:	ac4fe0ef          	jal	ra,160 <PD_Send>
    1ea0:	8522                	mv	a0,s0
    1ea2:	c4bff0ef          	jal	ra,1aec <PD_PHY_Reset>
    1ea6:	557d                	li	a0,-1
    1ea8:	b741                	j	1e28 <PD_Listen_Ready+0x48>
    1eaa:	0407e793          	ori	a5,a5,64
    1eae:	86ae                	mv	a3,a1
    1eb0:	4611                	li	a2,4
    1eb2:	002c                	addi	a1,sp,8
    1eb4:	453d                	li	a0,15
    1eb6:	c43e                	sw	a5,8(sp)
    1eb8:	3b61                	jal	1c50 <PD_Send_Retry>
    1eba:	e131                	bnez	a0,1efe <PD_Listen_Ready+0x11e>
    1ebc:	8522                	mv	a0,s0
    1ebe:	b70fe0ef          	jal	ra,22e <PD_Test_DP_S>
    1ec2:	02944703          	lbu	a4,41(s0)
    1ec6:	00153793          	seqz	a5,a0
    1eca:	02f71063          	bne	a4,a5,1eea <PD_Listen_Ready+0x10a>
    1ece:	545c                	lw	a5,44(s0)
    1ed0:	0807f793          	andi	a5,a5,128
    1ed4:	dba9                	beqz	a5,1e26 <PD_Listen_Ready+0x46>
    1ed6:	479d                	li	a5,7
    1ed8:	c85c                	sw	a5,20(s0)
    1eda:	b7b1                	j	1e26 <PD_Listen_Ready+0x46>
    1edc:	8522                	mv	a0,s0
    1ede:	3d35                	jal	1d1a <PD_Send_Retry_Rst.part.0>
    1ee0:	00a03533          	snez	a0,a0
    1ee4:	40a00533          	neg	a0,a0
    1ee8:	b781                	j	1e28 <PD_Listen_Ready+0x48>
    1eea:	e511                	bnez	a0,1ef6 <PD_Listen_Ready+0x116>
    1eec:	03044703          	lbu	a4,48(s0)
    1ef0:	e319                	bnez	a4,1ef6 <PD_Listen_Ready+0x116>
    1ef2:	4719                	li	a4,6
    1ef4:	c858                	sw	a4,20(s0)
    1ef6:	02f404a3          	sb	a5,41(s0)
    1efa:	557d                	li	a0,-1
    1efc:	b735                	j	1e28 <PD_Listen_Ready+0x48>
    1efe:	8522                	mv	a0,s0
    1f00:	3d29                	jal	1d1a <PD_Send_Retry_Rst.part.0>
    1f02:	dd4d                	beqz	a0,1ebc <PD_Listen_Ready+0xdc>
    1f04:	557d                	li	a0,-1
    1f06:	b70d                	j	1e28 <PD_Listen_Ready+0x48>

00001f08 <PD_Delay>:
    1f08:	a00fe2ef          	jal	t0,108 <__riscv_save_10>
    1f0c:	0205a023          	sw	zero,32(a1) # 1020 <IIC_ReadReg.constprop.1.isra.0+0x35a>
    1f10:	40027737          	lui	a4,0x40027
    1f14:	231e                	lhu	a5,0(a4)
    1f16:	6699                	lui	a3,0x6
    1f18:	8a2e                	mv	s4,a1
    1f1a:	8fd5                	or	a5,a5,a3
    1f1c:	a31e                	sh	a5,0(a4)
    1f1e:	00020737          	lui	a4,0x20
    1f22:	e000e7b7          	lui	a5,0xe000e
    1f26:	10e7a223          	sw	a4,260(a5) # e000e104 <_eusrstack+0xc0009104>
    1f2a:	e000f737          	lui	a4,0xe000f
    1f2e:	a821                	j	1f46 <PD_Delay+0x3e>
    1f30:	d1072783          	lw	a5,-752(a4) # e000ed10 <_eusrstack+0xc0009d10>
    1f34:	9bdd                	andi	a5,a5,-9
    1f36:	d0f72823          	sw	a5,-752(a4)
    1f3a:	10500073          	wfi
    1f3e:	020a2783          	lw	a5,32(s4)
    1f42:	14079c63          	bnez	a5,209a <PD_Delay+0x192>
    1f46:	8181a783          	lw	a5,-2024(gp) # 20000038 <TIM1_CNT>
    1f4a:	fea7e3e3          	bltu	a5,a0,1f30 <PD_Delay+0x28>
    1f4e:	400276b7          	lui	a3,0x40027
    1f52:	229e                	lhu	a5,0(a3)
    1f54:	7769                	lui	a4,0xffffa
    1f56:	177d                	addi	a4,a4,-1 # ffff9fff <_eusrstack+0xdfff4fff>
    1f58:	8ff9                	and	a5,a5,a4
    1f5a:	a29e                	sh	a5,0(a3)
    1f5c:	00020737          	lui	a4,0x20
    1f60:	e000e7b7          	lui	a5,0xe000e
    1f64:	18e7a223          	sw	a4,388(a5) # e000e184 <_eusrstack+0xc0009184>
    1f68:	40013437          	lui	s0,0x40013
    1f6c:	4581                	li	a1,0
    1f6e:	c0040513          	addi	a0,s0,-1024 # 40012c00 <_eusrstack+0x2000dc00>
    1f72:	020a2023          	sw	zero,32(s4)
    1f76:	8001ac23          	sw	zero,-2024(gp) # 20000038 <TIM1_CNT>
    1f7a:	26d020ef          	jal	ra,49e6 <TIM_SetCounter>
    1f7e:	4605                	li	a2,1
    1f80:	4585                	li	a1,1
    1f82:	c0040513          	addi	a0,s0,-1024
    1f86:	24f020ef          	jal	ra,49d4 <TIM_ITConfig>
    1f8a:	400114b7          	lui	s1,0x40011
    1f8e:	40027b37          	lui	s6,0x40027
    1f92:	4915                	li	s2,5
    1f94:	449c                	lw	a5,8(s1)
    1f96:	00eb5703          	lhu	a4,14(s6) # 4002700e <_eusrstack+0x2002200e>
    1f9a:	00cb5683          	lhu	a3,12(s6)
    1f9e:	83b9                	srli	a5,a5,0xe
    1fa0:	0706                	slli	a4,a4,0x1
    1fa2:	8a85                	andi	a3,a3,1
    1fa4:	8b09                	andi	a4,a4,2
    1fa6:	8f55                	or	a4,a4,a3
    1fa8:	ffd70693          	addi	a3,a4,-3 # 1fffd <main.c.ab49d0c1+0x14995>
    1fac:	010a2603          	lw	a2,16(s4)
    1fb0:	fff7c793          	not	a5,a5
    1fb4:	00d036b3          	snez	a3,a3
    1fb8:	8ff9                	and	a5,a5,a4
    1fba:	00269713          	slli	a4,a3,0x2
    1fbe:	00e7e9b3          	or	s3,a5,a4
    1fc2:	843e                	mv	s0,a5
    1fc4:	ce11                	beqz	a2,1fe0 <PD_Delay+0xd8>
    1fc6:	16078963          	beqz	a5,2138 <PD_Delay+0x230>
    1fca:	000a04a3          	sb	zero,9(s4)
    1fce:	00ca2503          	lw	a0,12(s4)
    1fd2:	157d                	addi	a0,a0,-1
    1fd4:	00153513          	seqz	a0,a0
    1fd8:	40a00533          	neg	a0,a0
    1fdc:	964fe06f          	j	140 <__riscv_restore_10>
    1fe0:	d7ed                	beqz	a5,1fca <PD_Delay+0xc2>
    1fe2:	009a4783          	lbu	a5,9(s4)
    1fe6:	0785                	addi	a5,a5,1
    1fe8:	0ff7f793          	zext.b	a5,a5
    1fec:	15279063          	bne	a5,s2,212c <PD_Delay+0x224>
    1ff0:	4785                	li	a5,1
    1ff2:	472d                	li	a4,11
    1ff4:	000a04a3          	sb	zero,9(s4)
    1ff8:	00fa2823          	sw	a5,16(s4)
    1ffc:	00ea2623          	sw	a4,12(s4)
    2000:	0af40f63          	beq	s0,a5,20be <PD_Delay+0x1b6>
    2004:	000b5783          	lhu	a5,0(s6)
    2008:	6515                	lui	a0,0x5
    200a:	85a2                	mv	a1,s0
    200c:	0047e793          	ori	a5,a5,4
    2010:	00fb1023          	sh	a5,0(s6)
    2014:	40c50513          	addi	a0,a0,1036 # 540c <memcpy+0x250>
    2018:	136030ef          	jal	ra,514e <printf>
    201c:	6915                	lui	s2,0x5
    201e:	6515                	lui	a0,0x5
    2020:	42490593          	addi	a1,s2,1060 # 5424 <memcpy+0x268>
    2024:	3e850513          	addi	a0,a0,1000 # 53e8 <memcpy+0x22c>
    2028:	126030ef          	jal	ra,514e <printf>
    202c:	4601                	li	a2,0
    202e:	80048513          	addi	a0,s1,-2048 # 40010800 <_eusrstack+0x2000b800>
    2032:	4589                	li	a1,2
    2034:	6da020ef          	jal	ra,470e <GPIO_WriteBit>
    2038:	400134b7          	lui	s1,0x40013
    203c:	c0048513          	addi	a0,s1,-1024 # 40012c00 <_eusrstack+0x2000dc00>
    2040:	4581                	li	a1,0
    2042:	8001ac23          	sw	zero,-2024(gp) # 20000038 <TIM1_CNT>
    2046:	1a1020ef          	jal	ra,49e6 <TIM_SetCounter>
    204a:	c0048513          	addi	a0,s1,-1024
    204e:	4605                	li	a2,1
    2050:	448d                	li	s1,3
    2052:	4585                	li	a1,1
    2054:	181020ef          	jal	ra,49d4 <TIM_ITConfig>
    2058:	f734dbe3          	bge	s1,s3,1fce <PD_Delay+0xc6>
    205c:	6515                	lui	a0,0x5
    205e:	42490593          	addi	a1,s2,1060
    2062:	3d450513          	addi	a0,a0,980 # 53d4 <memcpy+0x218>
    2066:	0e8030ef          	jal	ra,514e <printf>
    206a:	18940c63          	beq	s0,s1,2202 <PD_Delay+0x2fa>
    206e:	40011437          	lui	s0,0x40011
    2072:	0029f613          	andi	a2,s3,2
    2076:	6585                	lui	a1,0x1
    2078:	c0040513          	addi	a0,s0,-1024 # 40010c00 <_eusrstack+0x2000bc00>
    207c:	00163613          	seqz	a2,a2
    2080:	80058593          	addi	a1,a1,-2048 # 800 <__stack_size>
    2084:	68a020ef          	jal	ra,470e <GPIO_WriteBit>
    2088:	fff9c613          	not	a2,s3
    208c:	8a05                	andi	a2,a2,1
    208e:	6585                	lui	a1,0x1
    2090:	c0040513          	addi	a0,s0,-1024
    2094:	67a020ef          	jal	ra,470e <GPIO_WriteBit>
    2098:	bf1d                	j	1fce <PD_Delay+0xc6>
    209a:	400276b7          	lui	a3,0x40027
    209e:	229e                	lhu	a5,0(a3)
    20a0:	7769                	lui	a4,0xffffa
    20a2:	177d                	addi	a4,a4,-1 # ffff9fff <_eusrstack+0xdfff4fff>
    20a4:	8ff9                	and	a5,a5,a4
    20a6:	a29e                	sh	a5,0(a3)
    20a8:	00020737          	lui	a4,0x20
    20ac:	e000e7b7          	lui	a5,0xe000e
    20b0:	18e7a223          	sw	a4,388(a5) # e000e184 <_eusrstack+0xc0009184>
    20b4:	020a2023          	sw	zero,32(s4)
    20b8:	557d                	li	a0,-1
    20ba:	886fe06f          	j	140 <__riscv_restore_10>
    20be:	000b5783          	lhu	a5,0(s6)
    20c2:	6515                	lui	a0,0x5
    20c4:	4585                	li	a1,1
    20c6:	07c2                	slli	a5,a5,0x10
    20c8:	83c1                	srli	a5,a5,0x10
    20ca:	9bed                	andi	a5,a5,-5
    20cc:	07c2                	slli	a5,a5,0x10
    20ce:	83c1                	srli	a5,a5,0x10
    20d0:	00fb1023          	sh	a5,0(s6)
    20d4:	40c50513          	addi	a0,a0,1036 # 540c <memcpy+0x250>
    20d8:	076030ef          	jal	ra,514e <printf>
    20dc:	6915                	lui	s2,0x5
    20de:	6515                	lui	a0,0x5
    20e0:	42490593          	addi	a1,s2,1060 # 5424 <memcpy+0x268>
    20e4:	3e850513          	addi	a0,a0,1000 # 53e8 <memcpy+0x22c>
    20e8:	066030ef          	jal	ra,514e <printf>
    20ec:	4601                	li	a2,0
    20ee:	4589                	li	a1,2
    20f0:	80048513          	addi	a0,s1,-2048
    20f4:	61a020ef          	jal	ra,470e <GPIO_WriteBit>
    20f8:	40013437          	lui	s0,0x40013
    20fc:	4581                	li	a1,0
    20fe:	c0040513          	addi	a0,s0,-1024 # 40012c00 <_eusrstack+0x2000dc00>
    2102:	8001ac23          	sw	zero,-2024(gp) # 20000038 <TIM1_CNT>
    2106:	0e1020ef          	jal	ra,49e6 <TIM_SetCounter>
    210a:	4605                	li	a2,1
    210c:	4585                	li	a1,1
    210e:	c0040513          	addi	a0,s0,-1024
    2112:	0c3020ef          	jal	ra,49d4 <TIM_ITConfig>
    2116:	478d                	li	a5,3
    2118:	eb37dbe3          	bge	a5,s3,1fce <PD_Delay+0xc6>
    211c:	6515                	lui	a0,0x5
    211e:	42490593          	addi	a1,s2,1060
    2122:	3d450513          	addi	a0,a0,980 # 53d4 <memcpy+0x218>
    2126:	028030ef          	jal	ra,514e <printf>
    212a:	b791                	j	206e <PD_Delay+0x166>
    212c:	00fa04a3          	sb	a5,9(s4)
    2130:	4505                	li	a0,1
    2132:	1f5020ef          	jal	ra,4b26 <Delay_Ms>
    2136:	bdb9                	j	1f94 <PD_Delay+0x8c>
    2138:	009a4783          	lbu	a5,9(s4)
    213c:	4715                	li	a4,5
    213e:	0785                	addi	a5,a5,1
    2140:	0ff7f793          	zext.b	a5,a5
    2144:	fee794e3          	bne	a5,a4,212c <PD_Delay+0x224>
    2148:	4405                	li	s0,1
    214a:	400139b7          	lui	s3,0x40013
    214e:	4601                	li	a2,0
    2150:	c0098513          	addi	a0,s3,-1024 # 40012c00 <_eusrstack+0x2000dc00>
    2154:	000a04a3          	sb	zero,9(s4)
    2158:	000a2823          	sw	zero,16(s4)
    215c:	008a2623          	sw	s0,12(s4)
    2160:	4585                	li	a1,1
    2162:	073020ef          	jal	ra,49d4 <TIM_ITConfig>
    2166:	6b95                	lui	s7,0x5
    2168:	6515                	lui	a0,0x5
    216a:	3d0b8593          	addi	a1,s7,976 # 53d0 <memcpy+0x214>
    216e:	3d450513          	addi	a0,a0,980 # 53d4 <memcpy+0x218>
    2172:	7dd020ef          	jal	ra,514e <printf>
    2176:	6585                	lui	a1,0x1
    2178:	c0048513          	addi	a0,s1,-1024
    217c:	80058593          	addi	a1,a1,-2048 # 800 <__stack_size>
    2180:	4605                	li	a2,1
    2182:	58c020ef          	jal	ra,470e <GPIO_WriteBit>
    2186:	4605                	li	a2,1
    2188:	c0048513          	addi	a0,s1,-1024
    218c:	6585                	lui	a1,0x1
    218e:	580020ef          	jal	ra,470e <GPIO_WriteBit>
    2192:	6515                	lui	a0,0x5
    2194:	3d0b8593          	addi	a1,s7,976
    2198:	3e850513          	addi	a0,a0,1000 # 53e8 <memcpy+0x22c>
    219c:	7b3020ef          	jal	ra,514e <printf>
    21a0:	80048513          	addi	a0,s1,-2048
    21a4:	4605                	li	a2,1
    21a6:	4589                	li	a1,2
    21a8:	566020ef          	jal	ra,470e <GPIO_WriteBit>
    21ac:	4601                	li	a2,0
    21ae:	c0098513          	addi	a0,s3,-1024
    21b2:	4585                	li	a1,1
    21b4:	8001ac23          	sw	zero,-2024(gp) # 20000038 <TIM1_CNT>
    21b8:	01d020ef          	jal	ra,49d4 <TIM_ITConfig>
    21bc:	c0098513          	addi	a0,s3,-1024
    21c0:	4581                	li	a1,0
    21c2:	025020ef          	jal	ra,49e6 <TIM_SetCounter>
    21c6:	6515                	lui	a0,0x5
    21c8:	008a2023          	sw	s0,0(s4)
    21cc:	008a2223          	sw	s0,4(s4)
    21d0:	000a1423          	sh	zero,8(s4)
    21d4:	000a0523          	sb	zero,10(s4)
    21d8:	000a2823          	sw	zero,16(s4)
    21dc:	008a2623          	sw	s0,12(s4)
    21e0:	000a2a23          	sw	zero,20(s4)
    21e4:	020a2223          	sw	zero,36(s4)
    21e8:	020a2023          	sw	zero,32(s4)
    21ec:	020a2623          	sw	zero,44(s4)
    21f0:	020a1423          	sh	zero,40(s4)
    21f4:	020a0823          	sb	zero,48(s4)
    21f8:	3fc50513          	addi	a0,a0,1020 # 53fc <memcpy+0x240>
    21fc:	777020ef          	jal	ra,5172 <puts>
    2200:	bf05                	j	2130 <PD_Delay+0x228>
    2202:	6515                	lui	a0,0x5
    2204:	27900593          	li	a1,633
    2208:	42850513          	addi	a0,a0,1064 # 5428 <memcpy+0x26c>
    220c:	ffffd0ef          	jal	ra,20a <__assert>

00002210 <PD_SendRecv_VDM.constprop.0>:
    2210:	ef9fd2ef          	jal	t0,108 <__riscv_save_10>
    2214:	8b2a                	mv	s6,a0
    2216:	453d                	li	a0,15
    2218:	89b6                	mv	s3,a3
    221a:	a37ff0ef          	jal	ra,1c50 <PD_Send_Retry>
    221e:	ed79                	bnez	a0,22fc <PD_SendRecv_VDM.constprop.0+0xec>
    2220:	40013437          	lui	s0,0x40013
    2224:	4581                	li	a1,0
    2226:	8aaa                	mv	s5,a0
    2228:	c0040513          	addi	a0,s0,-1024 # 40012c00 <_eusrstack+0x2000dc00>
    222c:	8001ac23          	sw	zero,-2024(gp) # 20000038 <TIM1_CNT>
    2230:	7b6020ef          	jal	ra,49e6 <TIM_SetCounter>
    2234:	4605                	li	a2,1
    2236:	4585                	li	a1,1
    2238:	c0040513          	addi	a0,s0,-1024
    223c:	798020ef          	jal	ra,49d4 <TIM_ITConfig>
    2240:	4b95                	li	s7,5
    2242:	400274b7          	lui	s1,0x40027
    2246:	4a3d                	li	s4,15
    2248:	4979                	li	s2,30
    224a:	0fa00413          	li	s0,250
    224e:	a021                	j	2256 <PD_SendRecv_VDM.constprop.0+0x46>
    2250:	0a1020ef          	jal	ra,4af0 <Delay_Us>
    2254:	c01d                	beqz	s0,227a <PD_SendRecv_VDM.constprop.0+0x6a>
    2256:	349c                	lbu	a5,9(s1)
    2258:	4511                	li	a0,4
    225a:	147d                	addi	s0,s0,-1
    225c:	0207f793          	andi	a5,a5,32
    2260:	dbe5                	beqz	a5,2250 <PD_SendRecv_VDM.constprop.0+0x40>
    2262:	24ba                	lhu	a4,10(s1)
    2264:	349c                	lbu	a5,9(s1)
    2266:	0207e793          	ori	a5,a5,32
    226a:	b49c                	sb	a5,9(s1)
    226c:	c719                	beqz	a4,227a <PD_SendRecv_VDM.constprop.0+0x6a>
    226e:	0189a783          	lw	a5,24(s3)
    2272:	239c                	lbu	a5,0(a5)
    2274:	8bfd                	andi	a5,a5,31
    2276:	01478963          	beq	a5,s4,2288 <PD_SendRecv_VDM.constprop.0+0x78>
    227a:	197d                	addi	s2,s2,-1
    227c:	fc0917e3          	bnez	s2,224a <PD_SendRecv_VDM.constprop.0+0x3a>
    2280:	5afd                	li	s5,-1
    2282:	8556                	mv	a0,s5
    2284:	ebdfd06f          	j	140 <__riscv_restore_10>
    2288:	4551                	li	a0,20
    228a:	067020ef          	jal	ra,4af0 <Delay_Us>
    228e:	0189a403          	lw	s0,24(s3)
    2292:	0009a703          	lw	a4,0(s3)
    2296:	301c                	lbu	a5,1(s0)
    2298:	8385                	srli	a5,a5,0x1
    229a:	8b9d                	andi	a5,a5,7
    229c:	eb39                	bnez	a4,22f2 <PD_SendRecv_VDM.constprop.0+0xe2>
    229e:	14100713          	li	a4,321
    22a2:	04100693          	li	a3,65
    22a6:	0049a603          	lw	a2,4(s3)
    22aa:	01c9a503          	lw	a0,28(s3)
    22ae:	07a6                	slli	a5,a5,0x9
    22b0:	ee0d                	bnez	a2,22ea <PD_SendRecv_VDM.constprop.0+0xda>
    22b2:	8edd                	or	a3,a3,a5
    22b4:	a116                	sh	a3,0(a0)
    22b6:	4589                	li	a1,2
    22b8:	ea9fd0ef          	jal	ra,160 <PD_Send>
    22bc:	203c                	lbu	a5,2(s0)
    22be:	01f7f713          	andi	a4,a5,31
    22c2:	f96713e3          	bne	a4,s6,2248 <PD_SendRecv_VDM.constprop.0+0x38>
    22c6:	8399                	srli	a5,a5,0x6
    22c8:	4705                	li	a4,1
    22ca:	fae78ce3          	beq	a5,a4,2282 <PD_SendRecv_VDM.constprop.0+0x72>
    22ce:	4709                	li	a4,2
    22d0:	fae788e3          	beq	a5,a4,2280 <PD_SendRecv_VDM.constprop.0+0x70>
    22d4:	85ce                	mv	a1,s3
    22d6:	03200513          	li	a0,50
    22da:	c2fff0ef          	jal	ra,1f08 <PD_Delay>
    22de:	f14d                	bnez	a0,2280 <PD_SendRecv_VDM.constprop.0+0x70>
    22e0:	1bfd                	addi	s7,s7,-1
    22e2:	f80b8fe3          	beqz	s7,2280 <PD_SendRecv_VDM.constprop.0+0x70>
    22e6:	4979                	li	s2,30
    22e8:	b78d                	j	224a <PD_SendRecv_VDM.constprop.0+0x3a>
    22ea:	8fd9                	or	a5,a5,a4
    22ec:	a11e                	sh	a5,0(a0)
    22ee:	4601                	li	a2,0
    22f0:	b7d9                	j	22b6 <PD_SendRecv_VDM.constprop.0+0xa6>
    22f2:	16100713          	li	a4,353
    22f6:	06100693          	li	a3,97
    22fa:	b775                	j	22a6 <PD_SendRecv_VDM.constprop.0+0x96>
    22fc:	86ce                	mv	a3,s3
    22fe:	4601                	li	a2,0
    2300:	4581                	li	a1,0
    2302:	4535                	li	a0,13
    2304:	94dff0ef          	jal	ra,1c50 <PD_Send_Retry>
    2308:	c919                	beqz	a0,231e <PD_SendRecv_VDM.constprop.0+0x10e>
    230a:	0a900613          	li	a2,169
    230e:	4581                	li	a1,0
    2310:	4501                	li	a0,0
    2312:	e4ffd0ef          	jal	ra,160 <PD_Send>
    2316:	854e                	mv	a0,s3
    2318:	fd4ff0ef          	jal	ra,1aec <PD_PHY_Reset>
    231c:	b795                	j	2280 <PD_SendRecv_VDM.constprop.0+0x70>
    231e:	40013437          	lui	s0,0x40013
    2322:	4601                	li	a2,0
    2324:	4585                	li	a1,1
    2326:	c0040513          	addi	a0,s0,-1024 # 40012c00 <_eusrstack+0x2000dc00>
    232a:	8001ac23          	sw	zero,-2024(gp) # 20000038 <TIM1_CNT>
    232e:	6a6020ef          	jal	ra,49d4 <TIM_ITConfig>
    2332:	4581                	li	a1,0
    2334:	c0040513          	addi	a0,s0,-1024
    2338:	6ae020ef          	jal	ra,49e6 <TIM_SetCounter>
    233c:	4785                	li	a5,1
    233e:	00f9a023          	sw	a5,0(s3)
    2342:	00f9a223          	sw	a5,4(s3)
    2346:	00099423          	sh	zero,8(s3)
    234a:	00098523          	sb	zero,10(s3)
    234e:	0009a823          	sw	zero,16(s3)
    2352:	00f9a623          	sw	a5,12(s3)
    2356:	0009aa23          	sw	zero,20(s3)
    235a:	0209a223          	sw	zero,36(s3)
    235e:	0209a023          	sw	zero,32(s3)
    2362:	0209a623          	sw	zero,44(s3)
    2366:	02099423          	sh	zero,40(s3)
    236a:	02098823          	sb	zero,48(s3)
    236e:	bf09                	j	2280 <PD_SendRecv_VDM.constprop.0+0x70>

00002370 <NMI_Handler>:
    2370:	beef07b7          	lui	a5,0xbeef0
    2374:	e000e737          	lui	a4,0xe000e
    2378:	08078793          	addi	a5,a5,128 # beef0080 <_eusrstack+0x9eeeb080>
    237c:	c73c                	sw	a5,72(a4)
    237e:	8082                	ret

00002380 <HardFault_Handler>:
    2380:	d97fd2ef          	jal	t0,116 <__riscv_save_4>
    2384:	8a06                	mv	s4,ra
    2386:	898a                	mv	s3,sp
    2388:	073020ef          	jal	ra,4bfa <__get_MEPC>
    238c:	892a                	mv	s2,a0
    238e:	073020ef          	jal	ra,4c00 <__get_MCAUSE>
    2392:	842a                	mv	s0,a0
    2394:	073020ef          	jal	ra,4c06 <__get_MTVAL>
    2398:	84aa                	mv	s1,a0
    239a:	6515                	lui	a0,0x5
    239c:	85ca                	mv	a1,s2
    239e:	44050513          	addi	a0,a0,1088 # 5440 <memcpy+0x284>
    23a2:	5ad020ef          	jal	ra,514e <printf>
    23a6:	6515                	lui	a0,0x5
    23a8:	85a6                	mv	a1,s1
    23aa:	47050513          	addi	a0,a0,1136 # 5470 <memcpy+0x2b4>
    23ae:	5a1020ef          	jal	ra,514e <printf>
    23b2:	4731                	li	a4,12
    23b4:	47b1                	li	a5,12
    23b6:	00876363          	bltu	a4,s0,23bc <HardFault_Handler+0x3c>
    23ba:	87a2                	mv	a5,s0
    23bc:	6619                	lui	a2,0x6
    23be:	0796                	slli	a5,a5,0x5
    23c0:	be460613          	addi	a2,a2,-1052 # 5be4 <reason>
    23c4:	6515                	lui	a0,0x5
    23c6:	963e                	add	a2,a2,a5
    23c8:	85a2                	mv	a1,s0
    23ca:	48050513          	addi	a0,a0,1152 # 5480 <memcpy+0x2c4>
    23ce:	581020ef          	jal	ra,514e <printf>
    23d2:	6515                	lui	a0,0x5
    23d4:	49050513          	addi	a0,a0,1168 # 5490 <memcpy+0x2d4>
    23d8:	59b020ef          	jal	ra,5172 <puts>
    23dc:	6515                	lui	a0,0x5
    23de:	85d2                	mv	a1,s4
    23e0:	49c50513          	addi	a0,a0,1180 # 549c <memcpy+0x2e0>
    23e4:	56b020ef          	jal	ra,514e <printf>
    23e8:	6515                	lui	a0,0x5
    23ea:	85ce                	mv	a1,s3
    23ec:	4ac50513          	addi	a0,a0,1196 # 54ac <memcpy+0x2f0>
    23f0:	55f020ef          	jal	ra,514e <printf>
    23f4:	e000f737          	lui	a4,0xe000f
    23f8:	d1072783          	lw	a5,-752(a4) # e000ed10 <_eusrstack+0xc0009d10>
    23fc:	9bdd                	andi	a5,a5,-9
    23fe:	d0f72823          	sw	a5,-752(a4)
    2402:	10500073          	wfi
    2406:	bfcd                	j	23f8 <HardFault_Handler+0x78>

00002408 <EXTI15_8_IRQHandler>:
    2408:	6511                	lui	a0,0x4
    240a:	132020ef          	jal	ra,453c <EXTI_GetITStatus>
    240e:	e90d                	bnez	a0,2440 <EXTI15_8_IRQHandler+0x38>
    2410:	6521                	lui	a0,0x8
    2412:	12a020ef          	jal	ra,453c <EXTI_GetITStatus>
    2416:	e119                	bnez	a0,241c <EXTI15_8_IRQHandler+0x14>
    2418:	30200073          	mret
    241c:	623010ef          	jal	ra,423e <SystemInit>
    2420:	6515                	lui	a0,0x5
    2422:	4bc50513          	addi	a0,a0,1212 # 54bc <memcpy+0x300>
    2426:	54d020ef          	jal	ra,5172 <puts>
    242a:	6521                	lui	a0,0x8
    242c:	12e020ef          	jal	ra,455a <EXTI_ClearITPendingBit>
    2430:	e000e7b7          	lui	a5,0xe000e
    2434:	10000713          	li	a4,256
    2438:	18e7a223          	sw	a4,388(a5) # e000e184 <_eusrstack+0xc0009184>
    243c:	30200073          	mret
    2440:	5ff010ef          	jal	ra,423e <SystemInit>
    2444:	6515                	lui	a0,0x5
    2446:	4bc50513          	addi	a0,a0,1212 # 54bc <memcpy+0x300>
    244a:	529020ef          	jal	ra,5172 <puts>
    244e:	6511                	lui	a0,0x4
    2450:	10a020ef          	jal	ra,455a <EXTI_ClearITPendingBit>
    2454:	e000e7b7          	lui	a5,0xe000e
    2458:	10000713          	li	a4,256
    245c:	18e7a223          	sw	a4,388(a5) # e000e184 <_eusrstack+0xc0009184>
    2460:	bf45                	j	2410 <EXTI15_8_IRQHandler+0x8>

00002462 <TIM1_UP_IRQHandler>:
    2462:	1141                	addi	sp,sp,-16
    2464:	c622                	sw	s0,12(sp)
    2466:	40013437          	lui	s0,0x40013
    246a:	4585                	li	a1,1
    246c:	c0040513          	addi	a0,s0,-1024 # 40012c00 <_eusrstack+0x2000dc00>
    2470:	57a020ef          	jal	ra,49ea <TIM_GetITStatus>
    2474:	e509                	bnez	a0,247e <TIM1_UP_IRQHandler+0x1c>
    2476:	4432                	lw	s0,12(sp)
    2478:	0141                	addi	sp,sp,16
    247a:	30200073          	mret
    247e:	8181a783          	lw	a5,-2024(gp) # 20000038 <TIM1_CNT>
    2482:	c0040513          	addi	a0,s0,-1024
    2486:	4585                	li	a1,1
    2488:	0785                	addi	a5,a5,1
    248a:	80f1ac23          	sw	a5,-2024(gp) # 20000038 <TIM1_CNT>
    248e:	574020ef          	jal	ra,4a02 <TIM_ClearITPendingBit>
    2492:	4432                	lw	s0,12(sp)
    2494:	0141                	addi	sp,sp,16
    2496:	30200073          	mret

0000249a <USBPD_IRQHandler>:
    249a:	1141                	addi	sp,sp,-16
    249c:	c622                	sw	s0,12(sp)
    249e:	8141a503          	lw	a0,-2028(gp) # 20000034 <USBPD_FSM>
    24a2:	c426                	sw	s1,8(sp)
    24a4:	c24a                	sw	s2,4(sp)
    24a6:	c04e                	sw	s3,0(sp)
    24a8:	c179                	beqz	a0,256e <USBPD_IRQHandler+0xd4>
    24aa:	40027737          	lui	a4,0x40027
    24ae:	371c                	lbu	a5,9(a4)
    24b0:	0407f793          	andi	a5,a5,64
    24b4:	e3d1                	bnez	a5,2538 <USBPD_IRQHandler+0x9e>
    24b6:	371c                	lbu	a5,9(a4)
    24b8:	0207f793          	andi	a5,a5,32
    24bc:	eb81                	bnez	a5,24cc <USBPD_IRQHandler+0x32>
    24be:	4432                	lw	s0,12(sp)
    24c0:	44a2                	lw	s1,8(sp)
    24c2:	4912                	lw	s2,4(sp)
    24c4:	4982                	lw	s3,0(sp)
    24c6:	0141                	addi	sp,sp,16
    24c8:	30200073          	mret
    24cc:	371c                	lbu	a5,9(a4)
    24ce:	4551                	li	a0,20
    24d0:	0207e793          	ori	a5,a5,32
    24d4:	b71c                	sb	a5,9(a4)
    24d6:	2726                	lhu	s1,10(a4)
    24d8:	618020ef          	jal	ra,4af0 <Delay_Us>
    24dc:	8141a403          	lw	s0,-2028(gp) # 20000034 <USBPD_FSM>
    24e0:	04c2                	slli	s1,s1,0x10
    24e2:	80c1                	srli	s1,s1,0x10
    24e4:	4c1c                	lw	a5,24(s0)
    24e6:	4018                	lw	a4,0(s0)
    24e8:	339c                	lbu	a5,1(a5)
    24ea:	8385                	srli	a5,a5,0x1
    24ec:	8b9d                	andi	a5,a5,7
    24ee:	eb3d                	bnez	a4,2564 <USBPD_IRQHandler+0xca>
    24f0:	14100713          	li	a4,321
    24f4:	04100613          	li	a2,65
    24f8:	4054                	lw	a3,4(s0)
    24fa:	e291                	bnez	a3,24fe <USBPD_IRQHandler+0x64>
    24fc:	8732                	mv	a4,a2
    24fe:	4c48                	lw	a0,28(s0)
    2500:	07a6                	slli	a5,a5,0x9
    2502:	8f5d                	or	a4,a4,a5
    2504:	a11a                	sh	a4,0(a0)
    2506:	4601                	li	a2,0
    2508:	4589                	li	a1,2
    250a:	c57fd0ef          	jal	ra,160 <PD_Send>
    250e:	505c                	lw	a5,36(s0)
    2510:	d7dd                	beqz	a5,24be <USBPD_IRQHandler+0x24>
    2512:	e000e937          	lui	s2,0xe000e
    2516:	000209b7          	lui	s3,0x20
    251a:	19392223          	sw	s3,388(s2) # e000e184 <_eusrstack+0xc0009184>
    251e:	85a2                	mv	a1,s0
    2520:	8526                	mv	a0,s1
    2522:	9782                	jalr	a5
    2524:	d008                	sw	a0,32(s0)
    2526:	4432                	lw	s0,12(sp)
    2528:	11392223          	sw	s3,260(s2)
    252c:	44a2                	lw	s1,8(sp)
    252e:	4912                	lw	s2,4(sp)
    2530:	4982                	lw	s3,0(sp)
    2532:	0141                	addi	sp,sp,16
    2534:	30200073          	mret
    2538:	371c                	lbu	a5,9(a4)
    253a:	0407e793          	ori	a5,a5,64
    253e:	b71c                	sb	a5,9(a4)
    2540:	dacff0ef          	jal	ra,1aec <PD_PHY_Reset>
    2544:	8141a783          	lw	a5,-2028(gp) # 20000034 <USBPD_FSM>
    2548:	4705                	li	a4,1
    254a:	6515                	lui	a0,0x5
    254c:	d398                	sw	a4,32(a5)
    254e:	4f850513          	addi	a0,a0,1272 # 54f8 <memcpy+0x33c>
    2552:	421020ef          	jal	ra,5172 <puts>
    2556:	4432                	lw	s0,12(sp)
    2558:	44a2                	lw	s1,8(sp)
    255a:	4912                	lw	s2,4(sp)
    255c:	4982                	lw	s3,0(sp)
    255e:	0141                	addi	sp,sp,16
    2560:	30200073          	mret
    2564:	16100713          	li	a4,353
    2568:	06100613          	li	a2,97
    256c:	b771                	j	24f8 <USBPD_IRQHandler+0x5e>
    256e:	6515                	lui	a0,0x5
    2570:	45f00593          	li	a1,1119
    2574:	4cc50513          	addi	a0,a0,1228 # 54cc <memcpy+0x310>
    2578:	c93fd0ef          	jal	ra,20a <__assert>

0000257c <main>:
    257c:	b85fd2ef          	jal	t0,100 <__riscv_save_12>
    2580:	7149                	addi	sp,sp,-368
    2582:	4505                	li	a0,1
    2584:	1cc020ef          	jal	ra,4750 <NVIC_PriorityGroupConfig>
    2588:	501010ef          	jal	ra,4288 <SystemCoreClockUpdate>
    258c:	53a020ef          	jal	ra,4ac6 <Delay_Init>
    2590:	6571                	lui	a0,0x1c
    2592:	20050513          	addi	a0,a0,512 # 1c200 <main.c.ab49d0c1+0x10b98>
    2596:	5c6020ef          	jal	ra,4b5c <USART_Printf_Init>
    259a:	4585                	li	a1,1
    259c:	10000537          	lui	a0,0x10000
    25a0:	38a020ef          	jal	ra,492a <RCC_APB1PeriphClockCmd>
    25a4:	6515                	lui	a0,0x5
    25a6:	53850513          	addi	a0,a0,1336 # 5538 <memcpy+0x37c>
    25aa:	3c9020ef          	jal	ra,5172 <puts>
    25ae:	6515                	lui	a0,0x5
    25b0:	54450513          	addi	a0,a0,1348 # 5544 <memcpy+0x388>
    25b4:	3bf020ef          	jal	ra,5172 <puts>
    25b8:	6595                	lui	a1,0x5
    25ba:	6515                	lui	a0,0x5
    25bc:	55458593          	addi	a1,a1,1364 # 5554 <memcpy+0x398>
    25c0:	55850513          	addi	a0,a0,1368 # 5558 <memcpy+0x39c>
    25c4:	38b020ef          	jal	ra,514e <printf>
    25c8:	6695                	lui	a3,0x5
    25ca:	6615                	lui	a2,0x5
    25cc:	6595                	lui	a1,0x5
    25ce:	6515                	lui	a0,0x5
    25d0:	57868693          	addi	a3,a3,1400 # 5578 <memcpy+0x3bc>
    25d4:	58460613          	addi	a2,a2,1412 # 5584 <memcpy+0x3c8>
    25d8:	58c58593          	addi	a1,a1,1420 # 558c <memcpy+0x3d0>
    25dc:	59050513          	addi	a0,a0,1424 # 5590 <memcpy+0x3d4>
    25e0:	36f020ef          	jal	ra,514e <printf>
    25e4:	200007b7          	lui	a5,0x20000
    25e8:	0207a583          	lw	a1,32(a5) # 20000020 <SystemCoreClock>
    25ec:	6515                	lui	a0,0x5
    25ee:	59c50513          	addi	a0,a0,1436 # 559c <memcpy+0x3e0>
    25f2:	35d020ef          	jal	ra,514e <printf>
    25f6:	6d3010ef          	jal	ra,44c8 <DBGMCU_GetCHIPID>
    25fa:	85aa                	mv	a1,a0
    25fc:	6515                	lui	a0,0x5
    25fe:	5ac50513          	addi	a0,a0,1452 # 55ac <memcpy+0x3f0>
    2602:	34d020ef          	jal	ra,514e <printf>
    2606:	4585                	li	a1,1
    2608:	4511                	li	a0,4
    260a:	40011437          	lui	s0,0x40011
    260e:	2fe020ef          	jal	ra,490c <RCC_APB2PeriphClockCmd>
    2612:	80040513          	addi	a0,s0,-2048 # 40010800 <_eusrstack+0x2000b800>
    2616:	4601                	li	a2,0
    2618:	4585                	li	a1,1
    261a:	c32ff0ef          	jal	ra,1a4c <GPIO_OUT_INIT>
    261e:	80040513          	addi	a0,s0,-2048
    2622:	4605                	li	a2,1
    2624:	4589                	li	a1,2
    2626:	c26ff0ef          	jal	ra,1a4c <GPIO_OUT_INIT>
    262a:	4605                	li	a2,1
    262c:	80040513          	addi	a0,s0,-2048
    2630:	45a1                	li	a1,8
    2632:	c1aff0ef          	jal	ra,1a4c <GPIO_OUT_INIT>
    2636:	4585                	li	a1,1
    2638:	4521                	li	a0,8
    263a:	2d2020ef          	jal	ra,490c <RCC_APB2PeriphClockCmd>
    263e:	c0040513          	addi	a0,s0,-1024
    2642:	4605                	li	a2,1
    2644:	45a1                	li	a1,8
    2646:	6485                	lui	s1,0x1
    2648:	c04ff0ef          	jal	ra,1a4c <GPIO_OUT_INIT>
    264c:	80048593          	addi	a1,s1,-2048 # 800 <__stack_size>
    2650:	c0040513          	addi	a0,s0,-1024
    2654:	4605                	li	a2,1
    2656:	bf6ff0ef          	jal	ra,1a4c <GPIO_OUT_INIT>
    265a:	4605                	li	a2,1
    265c:	6585                	lui	a1,0x1
    265e:	c0040513          	addi	a0,s0,-1024
    2662:	beaff0ef          	jal	ra,1a4c <GPIO_OUT_INIT>
    2666:	6515                	lui	a0,0x5
    2668:	5c050513          	addi	a0,a0,1472 # 55c0 <memcpy+0x404>
    266c:	307020ef          	jal	ra,5172 <puts>
    2670:	4585                	li	a1,1
    2672:	4511                	li	a0,4
    2674:	298020ef          	jal	ra,490c <RCC_APB2PeriphClockCmd>
    2678:	06000793          	li	a5,96
    267c:	4905                	li	s2,1
    267e:	80040513          	addi	a0,s0,-2048
    2682:	02000593          	li	a1,32
    2686:	d8be                	sw	a5,112(sp)
    2688:	47c1                	li	a5,16
    268a:	dcbe                	sw	a5,120(sp)
    268c:	daca                	sw	s2,116(sp)
    268e:	06e020ef          	jal	ra,46fc <GPIO_SetBits>
    2692:	80040513          	addi	a0,s0,-2048
    2696:	04000593          	li	a1,64
    269a:	062020ef          	jal	ra,46fc <GPIO_SetBits>
    269e:	188c                	addi	a1,sp,112
    26a0:	80040513          	addi	a0,s0,-2048
    26a4:	6c1010ef          	jal	ra,4564 <GPIO_Init>
    26a8:	6515                	lui	a0,0x5
    26aa:	5d050513          	addi	a0,a0,1488 # 55d0 <memcpy+0x414>
    26ae:	2c5020ef          	jal	ra,5172 <puts>
    26b2:	4585                	li	a1,1
    26b4:	4521                	li	a0,8
    26b6:	256020ef          	jal	ra,490c <RCC_APB2PeriphClockCmd>
    26ba:	6515                	lui	a0,0x5
    26bc:	5dc50513          	addi	a0,a0,1500 # 55dc <memcpy+0x420>
    26c0:	2b3020ef          	jal	ra,5172 <puts>
    26c4:	4791                	li	a5,4
    26c6:	c0040513          	addi	a0,s0,-1024
    26ca:	188c                	addi	a1,sp,112
    26cc:	dcbe                	sw	a5,120(sp)
    26ce:	d8ca                	sw	s2,112(sp)
    26d0:	daca                	sw	s2,116(sp)
    26d2:	693010ef          	jal	ra,4564 <GPIO_Init>
    26d6:	4601                	li	a2,0
    26d8:	4589                	li	a1,2
    26da:	c0040513          	addi	a0,s0,-1024
    26de:	b6eff0ef          	jal	ra,1a4c <GPIO_OUT_INIT>
    26e2:	4509                	li	a0,2
    26e4:	40c020ef          	jal	ra,4af0 <Delay_Us>
    26e8:	c0040513          	addi	a0,s0,-1024
    26ec:	4605                	li	a2,1
    26ee:	4589                	li	a1,2
    26f0:	01e020ef          	jal	ra,470e <GPIO_WriteBit>
    26f4:	02410993          	addi	s3,sp,36
    26f8:	4609                	li	a2,2
    26fa:	85ce                	mv	a1,s3
    26fc:	50000513          	li	a0,1280
    2700:	d202                	sw	zero,36(sp)
    2702:	e87fe0ef          	jal	ra,1588 <IIC_ReadReg.isra.0>
    2706:	5592                	lw	a1,36(sp)
    2708:	6515                	lui	a0,0x5
    270a:	5e850513          	addi	a0,a0,1512 # 55e8 <memcpy+0x42c>
    270e:	241020ef          	jal	ra,514e <printf>
    2712:	1860                	addi	s0,sp,60
    2714:	4605                	li	a2,1
    2716:	85a2                	mv	a1,s0
    2718:	50800513          	li	a0,1288
    271c:	de02                	sw	zero,60(sp)
    271e:	e6bfe0ef          	jal	ra,1588 <IIC_ReadReg.isra.0>
    2722:	55f2                	lw	a1,60(sp)
    2724:	6515                	lui	a0,0x5
    2726:	5fc50513          	addi	a0,a0,1532 # 55fc <memcpy+0x440>
    272a:	225020ef          	jal	ra,514e <printf>
    272e:	000335b7          	lui	a1,0x33
    2732:	08558593          	addi	a1,a1,133 # 33085 <main.c.ab49d0c1+0x27a1d>
    2736:	6a000513          	li	a0,1696
    273a:	fa5fe0ef          	jal	ra,16de <IIC_WriteRegI.isra.0>
    273e:	000335b7          	lui	a1,0x33
    2742:	7a000513          	li	a0,1952
    2746:	f99fe0ef          	jal	ra,16de <IIC_WriteRegI.isra.0>
    274a:	91848513          	addi	a0,s1,-1768
    274e:	20100593          	li	a1,513
    2752:	f8dfe0ef          	jal	ra,16de <IIC_WriteRegI.isra.0>
    2756:	03000937          	lui	s2,0x3000
    275a:	00790593          	addi	a1,s2,7 # 3000007 <main.c.ab49d0c1+0x2ff499f>
    275e:	80048513          	addi	a0,s1,-2048
    2762:	f7dfe0ef          	jal	ra,16de <IIC_WriteRegI.isra.0>
    2766:	6515                	lui	a0,0x5
    2768:	61050513          	addi	a0,a0,1552 # 5610 <memcpy+0x454>
    276c:	207020ef          	jal	ra,5172 <puts>
    2770:	4595                	li	a1,5
    2772:	90048513          	addi	a0,s1,-1792
    2776:	f69fe0ef          	jal	ra,16de <IIC_WriteRegI.isra.0>
    277a:	1f400513          	li	a0,500
    277e:	372020ef          	jal	ra,4af0 <Delay_Us>
    2782:	4595                	li	a1,5
    2784:	90448513          	addi	a0,s1,-1788
    2788:	f57fe0ef          	jal	ra,16de <IIC_WriteRegI.isra.0>
    278c:	1f400513          	li	a0,500
    2790:	360020ef          	jal	ra,4af0 <Delay_Us>
    2794:	003205b7          	lui	a1,0x320
    2798:	91448513          	addi	a0,s1,-1772
    279c:	44558593          	addi	a1,a1,1093 # 320445 <main.c.ab49d0c1+0x314ddd>
    27a0:	f3ffe0ef          	jal	ra,16de <IIC_WriteRegI.isra.0>
    27a4:	4595                	li	a1,5
    27a6:	90848513          	addi	a0,s1,-1784
    27aa:	f35fe0ef          	jal	ra,16de <IIC_WriteRegI.isra.0>
    27ae:	1f400513          	li	a0,500
    27b2:	33e020ef          	jal	ra,4af0 <Delay_Us>
    27b6:	6515                	lui	a0,0x5
    27b8:	62050513          	addi	a0,a0,1568 # 5620 <memcpy+0x464>
    27bc:	1b7020ef          	jal	ra,5172 <puts>
    27c0:	130015b7          	lui	a1,0x13001
    27c4:	80048513          	addi	a0,s1,-2048
    27c8:	10758593          	addi	a1,a1,263 # 13001107 <main.c.ab49d0c1+0x12ff5a9f>
    27cc:	f13fe0ef          	jal	ra,16de <IIC_WriteRegI.isra.0>
    27d0:	00790593          	addi	a1,s2,7
    27d4:	80048513          	addi	a0,s1,-2048
    27d8:	6a85                	lui	s5,0x1
    27da:	f05fe0ef          	jal	ra,16de <IIC_WriteRegI.isra.0>
    27de:	800a8913          	addi	s2,s5,-2048 # 800 <__stack_size>
    27e2:	64c1                	lui	s1,0x10
    27e4:	1f400513          	li	a0,500
    27e8:	308020ef          	jal	ra,4af0 <Delay_Us>
    27ec:	188c                	addi	a1,sp,112
    27ee:	854a                	mv	a0,s2
    27f0:	872fe0ef          	jal	ra,862 <IIC_ReadReg.constprop.2.isra.0>
    27f4:	57c6                	lw	a5,112(sp)
    27f6:	8fe5                	and	a5,a5,s1
    27f8:	d7f5                	beqz	a5,27e4 <main+0x268>
    27fa:	6515                	lui	a0,0x5
    27fc:	63450513          	addi	a0,a0,1588 # 5634 <memcpy+0x478>
    2800:	173020ef          	jal	ra,5172 <puts>
    2804:	6515                	lui	a0,0x5
    2806:	64050513          	addi	a0,a0,1600 # 5640 <memcpy+0x484>
    280a:	169020ef          	jal	ra,5172 <puts>
    280e:	400114b7          	lui	s1,0x40011
    2812:	4911                	li	s2,4
    2814:	80048513          	addi	a0,s1,-2048 # 40010800 <_eusrstack+0x2000b800>
    2818:	08000793          	li	a5,128
    281c:	85ce                	mv	a1,s3
    281e:	d23e                	sw	a5,36(sp)
    2820:	d64a                	sw	s2,44(sp)
    2822:	d402                	sw	zero,40(sp)
    2824:	541010ef          	jal	ra,4564 <GPIO_Init>
    2828:	85ce                	mv	a1,s3
    282a:	80048513          	addi	a0,s1,-2048
    282e:	47c1                	li	a5,16
    2830:	d23e                	sw	a5,36(sp)
    2832:	d602                	sw	zero,44(sp)
    2834:	531010ef          	jal	ra,4564 <GPIO_Init>
    2838:	773010ef          	jal	ra,47aa <OPA_Unlock>
    283c:	4a05                	li	s4,1
    283e:	478d                	li	a5,3
    2840:	1888                	addi	a0,sp,112
    2842:	c33e                	sw	a5,132(sp)
    2844:	d882                	sw	zero,112(sp)
    2846:	dc82                	sw	zero,120(sp)
    2848:	de82                	sw	zero,124(sp)
    284a:	c502                	sw	zero,136(sp)
    284c:	c702                	sw	zero,140(sp)
    284e:	c902                	sw	zero,144(sp)
    2850:	cb02                	sw	zero,148(sp)
    2852:	cd02                	sw	zero,152(sp)
    2854:	cf02                	sw	zero,156(sp)
    2856:	d102                	sw	zero,160(sp)
    2858:	d302                	sw	zero,164(sp)
    285a:	dad2                	sw	s4,116(sp)
    285c:	c152                	sw	s4,128(sp)
    285e:	767010ef          	jal	ra,47c4 <OPA_Init>
    2862:	4585                	li	a1,1
    2864:	4505                	li	a0,1
    2866:	022020ef          	jal	ra,4888 <OPA_Cmd>
    286a:	4585                	li	a1,1
    286c:	20000513          	li	a0,512
    2870:	09c020ef          	jal	ra,490c <RCC_APB2PeriphClockCmd>
    2874:	400124b7          	lui	s1,0x40012
    2878:	40048513          	addi	a0,s1,1024 # 40012400 <_eusrstack+0x2000d400>
    287c:	2d3010ef          	jal	ra,434e <ADC_DeInit>
    2880:	40048513          	addi	a0,s1,1024
    2884:	02500593          	li	a1,37
    2888:	435010ef          	jal	ra,44bc <ADC_CLKConfig>
    288c:	000e07b7          	lui	a5,0xe0
    2890:	40048513          	addi	a0,s1,1024
    2894:	85a2                	mv	a1,s0
    2896:	c882                	sw	zero,80(sp)
    2898:	c4be                	sw	a5,72(sp)
    289a:	de02                	sw	zero,60(sp)
    289c:	c082                	sw	zero,64(sp)
    289e:	c282                	sw	zero,68(sp)
    28a0:	c682                	sw	zero,76(sp)
    28a2:	ca82                	sw	zero,84(sp)
    28a4:	cc82                	sw	zero,88(sp)
    28a6:	05410823          	sb	s4,80(sp)
    28aa:	2cb010ef          	jal	ra,4374 <ADC_Init>
    28ae:	4585                	li	a1,1
    28b0:	40048513          	addi	a0,s1,1024
    28b4:	317010ef          	jal	ra,43ca <ADC_Cmd>
    28b8:	6515                	lui	a0,0x5
    28ba:	64c50513          	addi	a0,a0,1612 # 564c <memcpy+0x490>
    28be:	0b5020ef          	jal	ra,5172 <puts>
    28c2:	4585                	li	a1,1
    28c4:	4541                	li	a0,16
    28c6:	d882                	sw	zero,112(sp)
    28c8:	da82                	sw	zero,116(sp)
    28ca:	dc82                	sw	zero,120(sp)
    28cc:	040020ef          	jal	ra,490c <RCC_APB2PeriphClockCmd>
    28d0:	4585                	li	a1,1
    28d2:	4505                	li	a0,1
    28d4:	038020ef          	jal	ra,490c <RCC_APB2PeriphClockCmd>
    28d8:	4585                	li	a1,1
    28da:	00020537          	lui	a0,0x20
    28de:	010020ef          	jal	ra,48ee <RCC_AHBPeriphClockCmd>
    28e2:	67b1                	lui	a5,0xc
    28e4:	188c                	addi	a1,sp,112
    28e6:	40011537          	lui	a0,0x40011
    28ea:	d8be                	sw	a5,112(sp)
    28ec:	dcca                	sw	s2,120(sp)
    28ee:	dad2                	sw	s4,116(sp)
    28f0:	475010ef          	jal	ra,4564 <GPIO_Init>
    28f4:	45b9                	li	a1,14
    28f6:	4509                	li	a0,2
    28f8:	d882                	sw	zero,112(sp)
    28fa:	da82                	sw	zero,116(sp)
    28fc:	dc82                	sw	zero,120(sp)
    28fe:	de82                	sw	zero,124(sp)
    2900:	623010ef          	jal	ra,4722 <GPIO_EXTILineConfig>
    2904:	6791                	lui	a5,0x4
    2906:	44b1                	li	s1,12
    2908:	1888                	addi	a0,sp,112
    290a:	d8be                	sw	a5,112(sp)
    290c:	dca6                	sw	s1,120(sp)
    290e:	da82                	sw	zero,116(sp)
    2910:	ded2                	sw	s4,124(sp)
    2912:	3c1010ef          	jal	ra,44d2 <EXTI_Init>
    2916:	45bd                	li	a1,15
    2918:	4509                	li	a0,2
    291a:	609010ef          	jal	ra,4722 <GPIO_EXTILineConfig>
    291e:	67a1                	lui	a5,0x8
    2920:	1888                	addi	a0,sp,112
    2922:	d8be                	sw	a5,112(sp)
    2924:	dca6                	sw	s1,120(sp)
    2926:	da82                	sw	zero,116(sp)
    2928:	ded2                	sw	s4,124(sp)
    292a:	3a9010ef          	jal	ra,44d2 <EXTI_Init>
    292e:	6515                	lui	a0,0x5
    2930:	65c50513          	addi	a0,a0,1628 # 565c <memcpy+0x4a0>
    2934:	03f020ef          	jal	ra,5172 <puts>
    2938:	800a8513          	addi	a0,s5,-2048
    293c:	4585                	li	a1,1
    293e:	de02                	sw	zero,60(sp)
    2940:	c082                	sw	zero,64(sp)
    2942:	d882                	sw	zero,112(sp)
    2944:	da82                	sw	zero,116(sp)
    2946:	06011c23          	sh	zero,120(sp)
    294a:	7c3010ef          	jal	ra,490c <RCC_APB2PeriphClockCmd>
    294e:	40013ab7          	lui	s5,0x40013
    2952:	02f00793          	li	a5,47
    2956:	188c                	addi	a1,sp,112
    2958:	c00a8513          	addi	a0,s5,-1024 # 40012c00 <_eusrstack+0x2000dc00>
    295c:	d8be                	sw	a5,112(sp)
    295e:	1f300793          	li	a5,499
    2962:	dabe                	sw	a5,116(sp)
    2964:	06010c23          	sb	zero,120(sp)
    2968:	7ff010ef          	jal	ra,4966 <TIM_TimeBaseInit>
    296c:	4585                	li	a1,1
    296e:	c00a8513          	addi	a0,s5,-1024
    2972:	090020ef          	jal	ra,4a02 <TIM_ClearITPendingBit>
    2976:	02300793          	li	a5,35
    297a:	8522                	mv	a0,s0
    297c:	02f11e23          	sh	a5,60(sp)
    2980:	03410f23          	sb	s4,62(sp)
    2984:	c0d2                	sw	s4,64(sp)
    2986:	5d1010ef          	jal	ra,4756 <NVIC_Init>
    298a:	4585                	li	a1,1
    298c:	c00a8513          	addi	a0,s5,-1024
    2990:	8001ac23          	sw	zero,-2024(gp) # 20000038 <TIM1_CNT>
    2994:	028020ef          	jal	ra,49bc <TIM_Cmd>
    2998:	400106b7          	lui	a3,0x40010
    299c:	4e9c                	lw	a5,24(a3)
    299e:	40027937          	lui	s2,0x40027
    29a2:	06800713          	li	a4,104
    29a6:	3007e793          	ori	a5,a5,768
    29aa:	ce9c                	sw	a5,24(a3)
    29ac:	00e91623          	sh	a4,12(s2) # 4002700c <_eusrstack+0x2002200c>
    29b0:	00e91723          	sh	a4,14(s2)
    29b4:	84818793          	addi	a5,gp,-1976 # 20000068 <PD_Rx_Buf>
    29b8:	cabe                	sw	a5,84(sp)
    29ba:	200007b7          	lui	a5,0x20000
    29be:	04478793          	addi	a5,a5,68 # 20000044 <PD_Tx_Buf>
    29c2:	ccbe                	sw	a5,88(sp)
    29c4:	47a1                	li	a5,8
    29c6:	00f91023          	sh	a5,0(s2)
    29ca:	57f1                	li	a5,-4
    29cc:	00f904a3          	sb	a5,9(s2)
    29d0:	4601                	li	a2,0
    29d2:	4585                	li	a1,1
    29d4:	c00a8513          	addi	a0,s5,-1024
    29d8:	8081aa23          	sw	s0,-2028(gp) # 20000034 <USBPD_FSM>
    29dc:	8001ac23          	sw	zero,-2024(gp) # 20000038 <TIM1_CNT>
    29e0:	7f5010ef          	jal	ra,49d4 <TIM_ITConfig>
    29e4:	4581                	li	a1,0
    29e6:	c00a8513          	addi	a0,s5,-1024
    29ea:	7fd010ef          	jal	ra,49e6 <TIM_SetCounter>
    29ee:	de52                	sw	s4,60(sp)
    29f0:	c0d2                	sw	s4,64(sp)
    29f2:	04011223          	sh	zero,68(sp)
    29f6:	04010323          	sb	zero,70(sp)
    29fa:	c682                	sw	zero,76(sp)
    29fc:	c4d2                	sw	s4,72(sp)
    29fe:	c882                	sw	zero,80(sp)
    2a00:	ce82                	sw	zero,92(sp)
    2a02:	d482                	sw	zero,104(sp)
    2a04:	06011223          	sh	zero,100(sp)
    2a08:	06010623          	sb	zero,108(sp)
    2a0c:	00095783          	lhu	a5,0(s2)
    2a10:	d082                	sw	zero,96(sp)
    2a12:	05415703          	lhu	a4,84(sp)
    2a16:	0027e793          	ori	a5,a5,2
    2a1a:	00f91023          	sh	a5,0(s2)
    2a1e:	00095783          	lhu	a5,0(s2)
    2a22:	6c89                	lui	s9,0x2
    2a24:	6d19                	lui	s10,0x6
    2a26:	07c2                	slli	a5,a5,0x10
    2a28:	83c1                	srli	a5,a5,0x10
    2a2a:	9bf5                	andi	a5,a5,-3
    2a2c:	07c2                	slli	a5,a5,0x10
    2a2e:	83c1                	srli	a5,a5,0x10
    2a30:	00f91023          	sh	a5,0(s2)
    2a34:	00494783          	lbu	a5,4(s2)
    2a38:	4601                	li	a2,0
    2a3a:	bc4d0d13          	addi	s10,s10,-1084 # 5bc4 <memcpy+0xa08>
    2a3e:	0fe7f793          	andi	a5,a5,254
    2a42:	00f90223          	sb	a5,4(s2)
    2a46:	00e91823          	sh	a4,16(s2)
    2a4a:	03b00793          	li	a5,59
    2a4e:	00f91123          	sh	a5,2(s2)
    2a52:	00494783          	lbu	a5,4(s2)
    2a56:	0027e793          	ori	a5,a5,2
    2a5a:	00f90223          	sb	a5,4(s2)
    2a5e:	6789                	lui	a5,0x2
    2a60:	de078793          	addi	a5,a5,-544 # 1de0 <PD_Listen_Ready>
    2a64:	6919                	lui	s2,0x6
    2a66:	c43e                	sw	a5,8(sp)
    2a68:	b8ac8793          	addi	a5,s9,-1142 # 1b8a <PD_Listen_Default>
    2a6c:	b3c90913          	addi	s2,s2,-1220 # 5b3c <memcpy+0x980>
    2a70:	c23e                	sw	a5,4(sp)
    2a72:	400276b7          	lui	a3,0x40027
    2a76:	40011b37          	lui	s6,0x40011
    2a7a:	008b2583          	lw	a1,8(s6) # 40011008 <_eusrstack+0x2000c008>
    2a7e:	26fe                	lhu	a5,14(a3)
    2a80:	26da                	lhu	a4,12(a3)
    2a82:	81b9                	srli	a1,a1,0xe
    2a84:	0786                	slli	a5,a5,0x1
    2a86:	8b05                	andi	a4,a4,1
    2a88:	8b89                	andi	a5,a5,2
    2a8a:	8fd9                	or	a5,a5,a4
    2a8c:	ffd78713          	addi	a4,a5,-3
    2a90:	fff5c593          	not	a1,a1
    2a94:	00e03733          	snez	a4,a4
    2a98:	8dfd                	and	a1,a1,a5
    2a9a:	00271793          	slli	a5,a4,0x2
    2a9e:	00f5eab3          	or	s5,a1,a5
    2aa2:	8a2e                	mv	s4,a1
    2aa4:	6c060763          	beqz	a2,3172 <main+0xbf6>
    2aa8:	22058863          	beqz	a1,2cd8 <main+0x75c>
    2aac:	040102a3          	sb	zero,69(sp)
    2ab0:	47a6                	lw	a5,72(sp)
    2ab2:	02100713          	li	a4,33
    2ab6:	76f76e63          	bltu	a4,a5,3232 <main+0xcb6>
    2aba:	078a                	slli	a5,a5,0x2
    2abc:	97ca                	add	a5,a5,s2
    2abe:	439c                	lw	a5,0(a5)
    2ac0:	8782                	jr	a5
    2ac2:	86a2                	mv	a3,s0
    2ac4:	4601                	li	a2,0
    2ac6:	4581                	li	a1,0
    2ac8:	4535                	li	a0,13
    2aca:	986ff0ef          	jal	ra,1c50 <PD_Send_Retry>
    2ace:	cd21                	beqz	a0,2b26 <main+0x5aa>
    2ad0:	0a900613          	li	a2,169
    2ad4:	4581                	li	a1,0
    2ad6:	4501                	li	a0,0
    2ad8:	e88fd0ef          	jal	ra,160 <PD_Send>
    2adc:	6a95                	lui	s5,0x5
    2ade:	6515                	lui	a0,0x5
    2ae0:	3d0a8593          	addi	a1,s5,976 # 53d0 <memcpy+0x214>
    2ae4:	3d450513          	addi	a0,a0,980 # 53d4 <memcpy+0x218>
    2ae8:	666020ef          	jal	ra,514e <printf>
    2aec:	40011a37          	lui	s4,0x40011
    2af0:	6585                	lui	a1,0x1
    2af2:	4605                	li	a2,1
    2af4:	80058593          	addi	a1,a1,-2048 # 800 <__stack_size>
    2af8:	c00a0513          	addi	a0,s4,-1024 # 40010c00 <_eusrstack+0x2000bc00>
    2afc:	413010ef          	jal	ra,470e <GPIO_WriteBit>
    2b00:	4605                	li	a2,1
    2b02:	6585                	lui	a1,0x1
    2b04:	c00a0513          	addi	a0,s4,-1024
    2b08:	407010ef          	jal	ra,470e <GPIO_WriteBit>
    2b0c:	6515                	lui	a0,0x5
    2b0e:	3d0a8593          	addi	a1,s5,976
    2b12:	3e850513          	addi	a0,a0,1000 # 53e8 <memcpy+0x22c>
    2b16:	638020ef          	jal	ra,514e <printf>
    2b1a:	4605                	li	a2,1
    2b1c:	4589                	li	a1,2
    2b1e:	800a0513          	addi	a0,s4,-2048
    2b22:	3ed010ef          	jal	ra,470e <GPIO_WriteBit>
    2b26:	40013a37          	lui	s4,0x40013
    2b2a:	4601                	li	a2,0
    2b2c:	4585                	li	a1,1
    2b2e:	c00a0513          	addi	a0,s4,-1024 # 40012c00 <_eusrstack+0x2000dc00>
    2b32:	8001ac23          	sw	zero,-2024(gp) # 20000038 <TIM1_CNT>
    2b36:	69f010ef          	jal	ra,49d4 <TIM_ITConfig>
    2b3a:	4581                	li	a1,0
    2b3c:	c00a0513          	addi	a0,s4,-1024
    2b40:	6a7010ef          	jal	ra,49e6 <TIM_SetCounter>
    2b44:	4785                	li	a5,1
    2b46:	de3e                	sw	a5,60(sp)
    2b48:	c0be                	sw	a5,64(sp)
    2b4a:	04011223          	sh	zero,68(sp)
    2b4e:	04010323          	sb	zero,70(sp)
    2b52:	c682                	sw	zero,76(sp)
    2b54:	c4be                	sw	a5,72(sp)
    2b56:	c882                	sw	zero,80(sp)
    2b58:	d082                	sw	zero,96(sp)
    2b5a:	ce82                	sw	zero,92(sp)
    2b5c:	d482                	sw	zero,104(sp)
    2b5e:	06011223          	sh	zero,100(sp)
    2b62:	06010623          	sb	zero,108(sp)
    2b66:	4551                	li	a0,20
    2b68:	789010ef          	jal	ra,4af0 <Delay_Us>
    2b6c:	4636                	lw	a2,76(sp)
    2b6e:	b711                	j	2a72 <main+0x4f6>
    2b70:	40012a37          	lui	s4,0x40012
    2b74:	400a0513          	addi	a0,s4,1024 # 40012400 <_eusrstack+0x2000d400>
    2b78:	469d                	li	a3,7
    2b7a:	4605                	li	a2,1
    2b7c:	4591                	li	a1,4
    2b7e:	075010ef          	jal	ra,43f2 <ADC_RegularChannelConfig>
    2b82:	400a0513          	addi	a0,s4,1024
    2b86:	4585                	li	a1,1
    2b88:	40012ab7          	lui	s5,0x40012
    2b8c:	04f010ef          	jal	ra,43da <ADC_SoftwareStartConvCmd>
    2b90:	400a8a13          	addi	s4,s5,1024 # 40012400 <_eusrstack+0x2000d400>
    2b94:	4589                	li	a1,2
    2b96:	8552                	mv	a0,s4
    2b98:	11b010ef          	jal	ra,44b2 <ADC_GetFlagStatus>
    2b9c:	dd65                	beqz	a0,2b94 <main+0x618>
    2b9e:	400a8513          	addi	a0,s5,1024
    2ba2:	109010ef          	jal	ra,44aa <ADC_GetConversionValue>
    2ba6:	6785                	lui	a5,0x1
    2ba8:	68f78793          	addi	a5,a5,1679 # 168f <IIC_ReadReg.isra.0+0x107>
    2bac:	02f505b3          	mul	a1,a0,a5
    2bb0:	6515                	lui	a0,0x5
    2bb2:	68050513          	addi	a0,a0,1664 # 5680 <memcpy+0x4c4>
    2bb6:	81b1                	srli	a1,a1,0xc
    2bb8:	596020ef          	jal	ra,514e <printf>
    2bbc:	86a2                	mv	a3,s0
    2bbe:	4601                	li	a2,0
    2bc0:	4581                	li	a1,0
    2bc2:	4519                	li	a0,6
    2bc4:	88cff0ef          	jal	ra,1c50 <PD_Send_Retry>
    2bc8:	7a050263          	beqz	a0,336c <main+0xdf0>
    2bcc:	47fd                	li	a5,31
    2bce:	c4be                	sw	a5,72(sp)
    2bd0:	bf59                	j	2b66 <main+0x5ea>
    2bd2:	86a2                	mv	a3,s0
    2bd4:	4601                	li	a2,0
    2bd6:	4581                	li	a1,0
    2bd8:	450d                	li	a0,3
    2bda:	876ff0ef          	jal	ra,1c50 <PD_Send_Retry>
    2bde:	f57d                	bnez	a0,2bcc <main+0x650>
    2be0:	47c9                	li	a5,18
    2be2:	c4be                	sw	a5,72(sp)
    2be4:	b749                	j	2b66 <main+0x5ea>
    2be6:	70000513          	li	a0,1792
    2bea:	e87fe0ef          	jal	ra,1a70 <WS2812_SetColor>
    2bee:	6511                	lui	a0,0x4
    2bf0:	16b010ef          	jal	ra,455a <EXTI_ClearITPendingBit>
    2bf4:	6521                	lui	a0,0x8
    2bf6:	165010ef          	jal	ra,455a <EXTI_ClearITPendingBit>
    2bfa:	e000e7b7          	lui	a5,0xe000e
    2bfe:	10000713          	li	a4,256
    2c02:	6515                	lui	a0,0x5
    2c04:	10e7a223          	sw	a4,260(a5) # e000e104 <_eusrstack+0xc0009104>
    2c08:	67050513          	addi	a0,a0,1648 # 5670 <memcpy+0x4b4>
    2c0c:	566020ef          	jal	ra,5172 <puts>
    2c10:	e000f737          	lui	a4,0xe000f
    2c14:	d1072783          	lw	a5,-752(a4) # e000ed10 <_eusrstack+0xc0009d10>
    2c18:	9bdd                	andi	a5,a5,-9
    2c1a:	d0f72823          	sw	a5,-752(a4)
    2c1e:	10500073          	wfi
    2c22:	b791                	j	2b66 <main+0x5ea>
    2c24:	47c6                	lw	a5,80(sp)
    2c26:	471d                	li	a4,7
    2c28:	00f77463          	bgeu	a4,a5,2c30 <main+0x6b4>
    2c2c:	5da0106f          	j	4206 <main+0x1c8a>
    2c30:	078a                	slli	a5,a5,0x2
    2c32:	97ea                	add	a5,a5,s10
    2c34:	439c                	lw	a5,0(a5)
    2c36:	8782                	jr	a5
    2c38:	4792                	lw	a5,4(sp)
    2c3a:	85a2                	mv	a1,s0
    2c3c:	0c800513          	li	a0,200
    2c40:	d0be                	sw	a5,96(sp)
    2c42:	ac6ff0ef          	jal	ra,1f08 <PD_Delay>
    2c46:	f20510e3          	bnez	a0,2b66 <main+0x5ea>
    2c4a:	47b1                	li	a5,12
    2c4c:	c4be                	sw	a5,72(sp)
    2c4e:	bf21                	j	2b66 <main+0x5ea>
    2c50:	4af9                	li	s5,30
    2c52:	40027a37          	lui	s4,0x40027
    2c56:	4b09                	li	s6,2
    2c58:	0fa00b93          	li	s7,250
    2c5c:	a039                	j	2c6a <main+0x6ee>
    2c5e:	1bfd                	addi	s7,s7,-1
    2c60:	4511                	li	a0,4
    2c62:	68f010ef          	jal	ra,4af0 <Delay_Us>
    2c66:	020b8563          	beqz	s7,2c90 <main+0x714>
    2c6a:	009a4783          	lbu	a5,9(s4) # 40027009 <_eusrstack+0x20022009>
    2c6e:	0207f793          	andi	a5,a5,32
    2c72:	d7f5                	beqz	a5,2c5e <main+0x6e2>
    2c74:	00aa5703          	lhu	a4,10(s4)
    2c78:	009a4783          	lbu	a5,9(s4)
    2c7c:	0207e793          	ori	a5,a5,32
    2c80:	00fa04a3          	sb	a5,9(s4)
    2c84:	c711                	beqz	a4,2c90 <main+0x714>
    2c86:	47d6                	lw	a5,84(sp)
    2c88:	239c                	lbu	a5,0(a5)
    2c8a:	8bfd                	andi	a5,a5,31
    2c8c:	69678c63          	beq	a5,s6,3324 <main+0xda8>
    2c90:	1afd                	addi	s5,s5,-1
    2c92:	fc0a93e3          	bnez	s5,2c58 <main+0x6dc>
    2c96:	02100793          	li	a5,33
    2c9a:	c4be                	sw	a5,72(sp)
    2c9c:	b5e9                	j	2b66 <main+0x5ea>
    2c9e:	4ac1                	li	s5,16
    2ca0:	a00d                	j	2cc2 <main+0x746>
    2ca2:	04614783          	lbu	a5,70(sp)
    2ca6:	0785                	addi	a5,a5,1
    2ca8:	0ff7f793          	zext.b	a5,a5
    2cac:	04f10323          	sb	a5,70(sp)
    2cb0:	67578663          	beq	a5,s5,331c <main+0xda0>
    2cb4:	85a2                	mv	a1,s0
    2cb6:	09600513          	li	a0,150
    2cba:	a4eff0ef          	jal	ra,1f08 <PD_Delay>
    2cbe:	ea0514e3          	bnez	a0,2b66 <main+0x5ea>
    2cc2:	86a2                	mv	a3,s0
    2cc4:	4611                	li	a2,4
    2cc6:	81018593          	addi	a1,gp,-2032 # 20000030 <SRCCAP_5V1A5>
    2cca:	4505                	li	a0,1
    2ccc:	f85fe0ef          	jal	ra,1c50 <PD_Send_Retry>
    2cd0:	f969                	bnez	a0,2ca2 <main+0x726>
    2cd2:	47b9                	li	a5,14
    2cd4:	c4be                	sw	a5,72(sp)
    2cd6:	bd41                	j	2b66 <main+0x5ea>
    2cd8:	04514783          	lbu	a5,69(sp)
    2cdc:	4715                	li	a4,5
    2cde:	0785                	addi	a5,a5,1
    2ce0:	0ff7f793          	zext.b	a5,a5
    2ce4:	00e79463          	bne	a5,a4,2cec <main+0x770>
    2ce8:	2c00106f          	j	3fa8 <main+0x1a2c>
    2cec:	04f102a3          	sb	a5,69(sp)
    2cf0:	bd9d                	j	2b66 <main+0x5ea>
    2cf2:	40013a37          	lui	s4,0x40013
    2cf6:	4785                	li	a5,1
    2cf8:	c00a0513          	addi	a0,s4,-1024 # 40012c00 <_eusrstack+0x2000dc00>
    2cfc:	4581                	li	a1,0
    2cfe:	06f102a3          	sb	a5,101(sp)
    2d02:	8001ac23          	sw	zero,-2024(gp) # 20000038 <TIM1_CNT>
    2d06:	4e1010ef          	jal	ra,49e6 <TIM_SetCounter>
    2d0a:	4605                	li	a2,1
    2d0c:	4585                	li	a1,1
    2d0e:	c00a0513          	addi	a0,s4,-1024
    2d12:	4c3010ef          	jal	ra,49d4 <TIM_ITConfig>
    2d16:	6519                	lui	a0,0x6
    2d18:	97050513          	addi	a0,a0,-1680 # 5970 <memcpy+0x7b4>
    2d1c:	456020ef          	jal	ra,5172 <puts>
    2d20:	6a19                	lui	s4,0x6
    2d22:	6595                	lui	a1,0x5
    2d24:	3d058593          	addi	a1,a1,976 # 53d0 <memcpy+0x214>
    2d28:	98ca0513          	addi	a0,s4,-1652 # 598c <memcpy+0x7d0>
    2d2c:	422020ef          	jal	ra,514e <printf>
    2d30:	40011537          	lui	a0,0x40011
    2d34:	c0050513          	addi	a0,a0,-1024 # 40010c00 <_eusrstack+0x2000bc00>
    2d38:	45a1                	li	a1,8
    2d3a:	4605                	li	a2,1
    2d3c:	1d3010ef          	jal	ra,470e <GPIO_WriteBit>
    2d40:	85a2                	mv	a1,s0
    2d42:	4515                	li	a0,5
    2d44:	9c4ff0ef          	jal	ra,1f08 <PD_Delay>
    2d48:	e0051fe3          	bnez	a0,2b66 <main+0x5ea>
    2d4c:	ff0187b7          	lui	a5,0xff018
    2d50:	07c5                	addi	a5,a5,17 # ff018011 <_eusrstack+0xdf013011>
    2d52:	d23e                	sw	a5,36(sp)
    2d54:	400277b7          	lui	a5,0x40027
    2d58:	239e                	lhu	a5,0(a5)
    2d5a:	8b91                	andi	a5,a5,4
    2d5c:	0017ba93          	seqz	s5,a5
    2d60:	c399                	beqz	a5,2d66 <main+0x7ea>
    2d62:	4540106f          	j	41b6 <main+0x1c3a>
    2d66:	6595                	lui	a1,0x5
    2d68:	52858593          	addi	a1,a1,1320 # 5528 <memcpy+0x36c>
    2d6c:	6519                	lui	a0,0x6
    2d6e:	9a450513          	addi	a0,a0,-1628 # 59a4 <memcpy+0x7e8>
    2d72:	3dc020ef          	jal	ra,514e <printf>
    2d76:	8656                	mv	a2,s5
    2d78:	40011ab7          	lui	s5,0x40011
    2d7c:	45a1                	li	a1,8
    2d7e:	800a8513          	addi	a0,s5,-2048 # 40010800 <_eusrstack+0x2000b800>
    2d82:	18d010ef          	jal	ra,470e <GPIO_WriteBit>
    2d86:	40600793          	li	a5,1030
    2d8a:	86a2                	mv	a3,s0
    2d8c:	4621                	li	a2,8
    2d8e:	85ce                	mv	a1,s3
    2d90:	4545                	li	a0,17
    2d92:	d43e                	sw	a5,40(sp)
    2d94:	c7cff0ef          	jal	ra,2210 <PD_SendRecv_VDM.constprop.0>
    2d98:	dc0517e3          	bnez	a0,2b66 <main+0x5ea>
    2d9c:	6595                	lui	a1,0x5
    2d9e:	42458593          	addi	a1,a1,1060 # 5424 <memcpy+0x268>
    2da2:	98ca0513          	addi	a0,s4,-1652
    2da6:	3a8020ef          	jal	ra,514e <printf>
    2daa:	4601                	li	a2,0
    2dac:	45a1                	li	a1,8
    2dae:	c00a8513          	addi	a0,s5,-1024
    2db2:	15d010ef          	jal	ra,470e <GPIO_WriteBit>
    2db6:	57a6                	lw	a5,104(sp)
    2db8:	0807f793          	andi	a5,a5,128
    2dbc:	c391                	beqz	a5,2dc0 <main+0x844>
    2dbe:	479d                	li	a5,7
    2dc0:	c8be                	sw	a5,80(sp)
    2dc2:	b355                	j	2b66 <main+0x5ea>
    2dc4:	ff0087b7          	lui	a5,0xff008
    2dc8:	0789                	addi	a5,a5,2 # ff008002 <_eusrstack+0xdf003002>
    2dca:	86a2                	mv	a3,s0
    2dcc:	4611                	li	a2,4
    2dce:	85ce                	mv	a1,s3
    2dd0:	4509                	li	a0,2
    2dd2:	d23e                	sw	a5,36(sp)
    2dd4:	c3cff0ef          	jal	ra,2210 <PD_SendRecv_VDM.constprop.0>
    2dd8:	c119                	beqz	a0,2dde <main+0x862>
    2dda:	2880106f          	j	4062 <main+0x1ae6>
    2dde:	47d6                	lw	a5,84(sp)
    2de0:	23d6                	lhu	a3,4(a5)
    2de2:	e299                	bnez	a3,2de8 <main+0x86c>
    2de4:	3e20106f          	j	41c6 <main+0x1c4a>
    2de8:	6741                	lui	a4,0x10
    2dea:	f0170713          	addi	a4,a4,-255 # ff01 <main.c.ab49d0c1+0x4899>
    2dee:	08e68a63          	beq	a3,a4,2e82 <main+0x906>
    2df2:	23b6                	lhu	a3,2(a5)
    2df4:	e299                	bnez	a3,2dfa <main+0x87e>
    2df6:	3d00106f          	j	41c6 <main+0x1c4a>
    2dfa:	08e68463          	beq	a3,a4,2e82 <main+0x906>
    2dfe:	2796                	lhu	a3,8(a5)
    2e00:	e299                	bnez	a3,2e06 <main+0x88a>
    2e02:	3c40106f          	j	41c6 <main+0x1c4a>
    2e06:	06e68e63          	beq	a3,a4,2e82 <main+0x906>
    2e0a:	23f6                	lhu	a3,6(a5)
    2e0c:	e299                	bnez	a3,2e12 <main+0x896>
    2e0e:	3b80106f          	j	41c6 <main+0x1c4a>
    2e12:	06e68863          	beq	a3,a4,2e82 <main+0x906>
    2e16:	27d6                	lhu	a3,12(a5)
    2e18:	e299                	bnez	a3,2e1e <main+0x8a2>
    2e1a:	3ac0106f          	j	41c6 <main+0x1c4a>
    2e1e:	6741                	lui	a4,0x10
    2e20:	f0170713          	addi	a4,a4,-255 # ff01 <main.c.ab49d0c1+0x4899>
    2e24:	04e68f63          	beq	a3,a4,2e82 <main+0x906>
    2e28:	27b6                	lhu	a3,10(a5)
    2e2a:	e299                	bnez	a3,2e30 <main+0x8b4>
    2e2c:	39a0106f          	j	41c6 <main+0x1c4a>
    2e30:	04e68963          	beq	a3,a4,2e82 <main+0x906>
    2e34:	2b96                	lhu	a3,16(a5)
    2e36:	e299                	bnez	a3,2e3c <main+0x8c0>
    2e38:	38e0106f          	j	41c6 <main+0x1c4a>
    2e3c:	04e68363          	beq	a3,a4,2e82 <main+0x906>
    2e40:	27f6                	lhu	a3,14(a5)
    2e42:	e299                	bnez	a3,2e48 <main+0x8cc>
    2e44:	3820106f          	j	41c6 <main+0x1c4a>
    2e48:	02e68d63          	beq	a3,a4,2e82 <main+0x906>
    2e4c:	2bd6                	lhu	a3,20(a5)
    2e4e:	e299                	bnez	a3,2e54 <main+0x8d8>
    2e50:	3760106f          	j	41c6 <main+0x1c4a>
    2e54:	02e68763          	beq	a3,a4,2e82 <main+0x906>
    2e58:	2bb6                	lhu	a3,18(a5)
    2e5a:	e299                	bnez	a3,2e60 <main+0x8e4>
    2e5c:	36a0106f          	j	41c6 <main+0x1c4a>
    2e60:	6741                	lui	a4,0x10
    2e62:	f0170713          	addi	a4,a4,-255 # ff01 <main.c.ab49d0c1+0x4899>
    2e66:	00e68e63          	beq	a3,a4,2e82 <main+0x906>
    2e6a:	2f96                	lhu	a3,24(a5)
    2e6c:	e299                	bnez	a3,2e72 <main+0x8f6>
    2e6e:	3580106f          	j	41c6 <main+0x1c4a>
    2e72:	00e68863          	beq	a3,a4,2e82 <main+0x906>
    2e76:	2bfe                	lhu	a5,22(a5)
    2e78:	e399                	bnez	a5,2e7e <main+0x902>
    2e7a:	34c0106f          	j	41c6 <main+0x1c4a>
    2e7e:	cee794e3          	bne	a5,a4,2b66 <main+0x5ea>
    2e82:	478d                	li	a5,3
    2e84:	c8be                	sw	a5,80(sp)
    2e86:	b1c5                	j	2b66 <main+0x5ea>
    2e88:	ff0087b7          	lui	a5,0xff008
    2e8c:	0785                	addi	a5,a5,1 # ff008001 <_eusrstack+0xdf003001>
    2e8e:	86a2                	mv	a3,s0
    2e90:	4611                	li	a2,4
    2e92:	85ce                	mv	a1,s3
    2e94:	4505                	li	a0,1
    2e96:	d23e                	sw	a5,36(sp)
    2e98:	b78ff0ef          	jal	ra,2210 <PD_SendRecv_VDM.constprop.0>
    2e9c:	52051163          	bnez	a0,33be <main+0xe42>
    2ea0:	45d6                	lw	a1,84(sp)
    2ea2:	1888                	addi	a0,sp,112
    2ea4:	6b41                	lui	s6,0x10
    2ea6:	319c                	lbu	a5,1(a1)
    2ea8:	0599                	addi	a1,a1,6
    2eaa:	1b7d                	addi	s6,s6,-1 # ffff <main.c.ab49d0c1+0x4997>
    2eac:	0047da13          	srli	s4,a5,0x4
    2eb0:	007a7a13          	andi	s4,s4,7
    2eb4:	1a7d                	addi	s4,s4,-1
    2eb6:	002a1613          	slli	a2,s4,0x2
    2eba:	302020ef          	jal	ra,51bc <memcpy>
    2ebe:	6515                	lui	a0,0x5
    2ec0:	6cc50513          	addi	a0,a0,1740 # 56cc <memcpy+0x510>
    2ec4:	2ae020ef          	jal	ra,5172 <puts>
    2ec8:	5ac6                	lw	s5,112(sp)
    2eca:	6515                	lui	a0,0x5
    2ecc:	6d850513          	addi	a0,a0,1752 # 56d8 <memcpy+0x51c>
    2ed0:	016af5b3          	and	a1,s5,s6
    2ed4:	27a020ef          	jal	ra,514e <printf>
    2ed8:	5be6                	lw	s7,120(sp)
    2eda:	6515                	lui	a0,0x5
    2edc:	6e850513          	addi	a0,a0,1768 # 56e8 <memcpy+0x52c>
    2ee0:	010bd593          	srli	a1,s7,0x10
    2ee4:	26a020ef          	jal	ra,514e <printf>
    2ee8:	6515                	lui	a0,0x5
    2eea:	016bf5b3          	and	a1,s7,s6
    2eee:	6f850513          	addi	a0,a0,1784 # 56f8 <memcpy+0x53c>
    2ef2:	25c020ef          	jal	ra,514e <printf>
    2ef6:	01badb13          	srli	s6,s5,0x1b
    2efa:	007b7b13          	andi	s6,s6,7
    2efe:	6515                	lui	a0,0x5
    2f00:	85da                	mv	a1,s6
    2f02:	70850513          	addi	a0,a0,1800 # 5708 <memcpy+0x54c>
    2f06:	248020ef          	jal	ra,514e <printf>
    2f0a:	ffbb0593          	addi	a1,s6,-5
    2f0e:	6515                	lui	a0,0x5
    2f10:	0015b593          	seqz	a1,a1
    2f14:	71850513          	addi	a0,a0,1816 # 5718 <memcpy+0x55c>
    2f18:	236020ef          	jal	ra,514e <printf>
    2f1c:	6515                	lui	a0,0x5
    2f1e:	01fad593          	srli	a1,s5,0x1f
    2f22:	72850513          	addi	a0,a0,1832 # 5728 <memcpy+0x56c>
    2f26:	228020ef          	jal	ra,514e <printf>
    2f2a:	01ead593          	srli	a1,s5,0x1e
    2f2e:	6515                	lui	a0,0x5
    2f30:	8985                	andi	a1,a1,1
    2f32:	73850513          	addi	a0,a0,1848 # 5738 <memcpy+0x57c>
    2f36:	218020ef          	jal	ra,514e <printf>
    2f3a:	01aad593          	srli	a1,s5,0x1a
    2f3e:	6515                	lui	a0,0x5
    2f40:	8985                	andi	a1,a1,1
    2f42:	74c50513          	addi	a0,a0,1868 # 574c <memcpy+0x590>
    2f46:	208020ef          	jal	ra,514e <printf>
    2f4a:	55d6                	lw	a1,116(sp)
    2f4c:	6515                	lui	a0,0x5
    2f4e:	75850513          	addi	a0,a0,1880 # 5758 <memcpy+0x59c>
    2f52:	1fc020ef          	jal	ra,514e <printf>
    2f56:	040007b7          	lui	a5,0x4000
    2f5a:	00faf7b3          	and	a5,s5,a5
    2f5e:	e399                	bnez	a5,2f64 <main+0x9e8>
    2f60:	1ca0106f          	j	412a <main+0x1bae>
    2f64:	4795                	li	a5,5
    2f66:	00fb1763          	bne	s6,a5,2f74 <main+0x9f8>
    2f6a:	478d                	li	a5,3
    2f6c:	0147d463          	bge	a5,s4,2f74 <main+0x9f8>
    2f70:	1020106f          	j	4072 <main+0x1af6>
    2f74:	4789                	li	a5,2
    2f76:	c8be                	sw	a5,80(sp)
    2f78:	b6fd                	j	2b66 <main+0x5ea>
    2f7a:	85a2                	mv	a1,s0
    2f7c:	0c800513          	li	a0,200
    2f80:	f89fe0ef          	jal	ra,1f08 <PD_Delay>
    2f84:	b6cd                	j	2b66 <main+0x5ea>
    2f86:	06c14a03          	lbu	s4,108(sp)
    2f8a:	440a0263          	beqz	s4,33ce <main+0xe52>
    2f8e:	c882                	sw	zero,80(sp)
    2f90:	bed9                	j	2b66 <main+0x5ea>
    2f92:	ff018737          	lui	a4,0xff018
    2f96:	06414783          	lbu	a5,100(sp)
    2f9a:	0711                	addi	a4,a4,4 # ff018004 <_eusrstack+0xdf013004>
    2f9c:	d23a                	sw	a4,36(sp)
    2f9e:	e399                	bnez	a5,2fa4 <main+0xa28>
    2fa0:	2840106f          	j	4224 <main+0x1ca8>
    2fa4:	07a2                	slli	a5,a5,0x8
    2fa6:	8fd9                	or	a5,a5,a4
    2fa8:	86a2                	mv	a3,s0
    2faa:	4611                	li	a2,4
    2fac:	85ce                	mv	a1,s3
    2fae:	453d                	li	a0,15
    2fb0:	d23e                	sw	a5,36(sp)
    2fb2:	c9ffe0ef          	jal	ra,1c50 <PD_Send_Retry>
    2fb6:	c119                	beqz	a0,2fbc <main+0xa40>
    2fb8:	25c0106f          	j	4214 <main+0x1c98>
    2fbc:	40013a37          	lui	s4,0x40013
    2fc0:	c00a0513          	addi	a0,s4,-1024 # 40012c00 <_eusrstack+0x2000dc00>
    2fc4:	4581                	li	a1,0
    2fc6:	8001ac23          	sw	zero,-2024(gp) # 20000038 <TIM1_CNT>
    2fca:	21d010ef          	jal	ra,49e6 <TIM_SetCounter>
    2fce:	c00a0513          	addi	a0,s4,-1024
    2fd2:	4605                	li	a2,1
    2fd4:	4585                	li	a1,1
    2fd6:	1ff010ef          	jal	ra,49d4 <TIM_ITConfig>
    2fda:	4b95                	li	s7,5
    2fdc:	40027a37          	lui	s4,0x40027
    2fe0:	4b3d                	li	s6,15
    2fe2:	03200a93          	li	s5,50
    2fe6:	0fa00c13          	li	s8,250
    2fea:	a039                	j	2ff8 <main+0xa7c>
    2fec:	1c7d                	addi	s8,s8,-1 # 2fffff <main.c.ab49d0c1+0x2f4997>
    2fee:	4511                	li	a0,4
    2ff0:	301010ef          	jal	ra,4af0 <Delay_Us>
    2ff4:	020c0563          	beqz	s8,301e <main+0xaa2>
    2ff8:	009a4783          	lbu	a5,9(s4) # 40027009 <_eusrstack+0x20022009>
    2ffc:	0207f793          	andi	a5,a5,32
    3000:	d7f5                	beqz	a5,2fec <main+0xa70>
    3002:	00aa5703          	lhu	a4,10(s4)
    3006:	009a4783          	lbu	a5,9(s4)
    300a:	0207e793          	ori	a5,a5,32
    300e:	00fa04a3          	sb	a5,9(s4)
    3012:	c711                	beqz	a4,301e <main+0xaa2>
    3014:	47d6                	lw	a5,84(sp)
    3016:	239c                	lbu	a5,0(a5)
    3018:	8bfd                	andi	a5,a5,31
    301a:	29678863          	beq	a5,s6,32aa <main+0xd2e>
    301e:	1afd                	addi	s5,s5,-1
    3020:	fc0a93e3          	bnez	s5,2fe6 <main+0xa6a>
    3024:	6519                	lui	a0,0x6
    3026:	8f850513          	addi	a0,a0,-1800 # 58f8 <memcpy+0x73c>
    302a:	148020ef          	jal	ra,5172 <puts>
    302e:	c882                	sw	zero,80(sp)
    3030:	be1d                	j	2b66 <main+0x5ea>
    3032:	ff0187b7          	lui	a5,0xff018
    3036:	07c1                	addi	a5,a5,16 # ff018010 <_eusrstack+0xdf013010>
    3038:	d23e                	sw	a5,36(sp)
    303a:	86a2                	mv	a3,s0
    303c:	4785                	li	a5,1
    303e:	4621                	li	a2,8
    3040:	85ce                	mv	a1,s3
    3042:	4541                	li	a0,16
    3044:	d43e                	sw	a5,40(sp)
    3046:	9caff0ef          	jal	ra,2210 <PD_SendRecv_VDM.constprop.0>
    304a:	b0051ee3          	bnez	a0,2b66 <main+0x5ea>
    304e:	8522                	mv	a0,s0
    3050:	9defd0ef          	jal	ra,22e <PD_Test_DP_S>
    3054:	c119                	beqz	a0,305a <main+0xade>
    3056:	1800106f          	j	41d6 <main+0x1c5a>
    305a:	4799                	li	a5,6
    305c:	c8be                	sw	a5,80(sp)
    305e:	b621                	j	2b66 <main+0x5ea>
    3060:	ff0187b7          	lui	a5,0xff018
    3064:	078d                	addi	a5,a5,3 # ff018003 <_eusrstack+0xdf013003>
    3066:	86a2                	mv	a3,s0
    3068:	4611                	li	a2,4
    306a:	85ce                	mv	a1,s3
    306c:	450d                	li	a0,3
    306e:	d23e                	sw	a5,36(sp)
    3070:	9a0ff0ef          	jal	ra,2210 <PD_SendRecv_VDM.constprop.0>
    3074:	8b2a                	mv	s6,a0
    3076:	0e051763          	bnez	a0,3164 <main+0xbe8>
    307a:	45d6                	lw	a1,84(sp)
    307c:	1888                	addi	a0,sp,112
    307e:	319c                	lbu	a5,1(a1)
    3080:	0599                	addi	a1,a1,6
    3082:	0047da13          	srli	s4,a5,0x4
    3086:	007a7a13          	andi	s4,s4,7
    308a:	1a7d                	addi	s4,s4,-1
    308c:	002a1613          	slli	a2,s4,0x2
    3090:	12c020ef          	jal	ra,51bc <memcpy>
    3094:	0d405863          	blez	s4,3164 <main+0xbe8>
    3098:	07010a93          	addi	s5,sp,112
    309c:	4781                	li	a5,0
    309e:	6699                	lui	a3,0x6
    30a0:	6c19                	lui	s8,0x6
    30a2:	6b99                	lui	s7,0x6
    30a4:	6c99                	lui	s9,0x6
    30a6:	0785                	addi	a5,a5,1
    30a8:	85be                	mv	a1,a5
    30aa:	86468513          	addi	a0,a3,-1948 # 5864 <memcpy+0x6a8>
    30ae:	c63e                	sw	a5,12(sp)
    30b0:	09e020ef          	jal	ra,514e <printf>
    30b4:	000aad83          	lw	s11,0(s5)
    30b8:	870c0513          	addi	a0,s8,-1936 # 5870 <memcpy+0x6b4>
    30bc:	0a91                	addi	s5,s5,4
    30be:	003df593          	andi	a1,s11,3
    30c2:	08c020ef          	jal	ra,514e <printf>
    30c6:	006dd593          	srli	a1,s11,0x6
    30ca:	8985                	andi	a1,a1,1
    30cc:	884b8513          	addi	a0,s7,-1916 # 5884 <memcpy+0x6c8>
    30d0:	07e020ef          	jal	ra,514e <printf>
    30d4:	008dd593          	srli	a1,s11,0x8
    30d8:	0ff5f593          	zext.b	a1,a1
    30dc:	898c8513          	addi	a0,s9,-1896 # 5898 <memcpy+0x6dc>
    30e0:	06e020ef          	jal	ra,514e <printf>
    30e4:	47b2                	lw	a5,12(sp)
    30e6:	6699                	lui	a3,0x6
    30e8:	fb47cfe3          	blt	a5,s4,30a6 <main+0xb2a>
    30ec:	5ac6                	lw	s5,112(sp)
    30ee:	4795                	li	a5,5
    30f0:	005af713          	andi	a4,s5,5
    30f4:	00f71463          	bne	a4,a5,30fc <main+0xb80>
    30f8:	0420106f          	j	413a <main+0x1bbe>
    30fc:	4705                	li	a4,1
    30fe:	06ea0363          	beq	s4,a4,3164 <main+0xbe8>
    3102:	5ad6                	lw	s5,116(sp)
    3104:	005af713          	andi	a4,s5,5
    3108:	00f71463          	bne	a4,a5,3110 <main+0xb94>
    310c:	0d80106f          	j	41e4 <main+0x1c68>
    3110:	4709                	li	a4,2
    3112:	04ea0963          	beq	s4,a4,3164 <main+0xbe8>
    3116:	5ae6                	lw	s5,120(sp)
    3118:	005af713          	andi	a4,s5,5
    311c:	00f71463          	bne	a4,a5,3124 <main+0xba8>
    3120:	0a00106f          	j	41c0 <main+0x1c44>
    3124:	470d                	li	a4,3
    3126:	02ea0f63          	beq	s4,a4,3164 <main+0xbe8>
    312a:	5af6                	lw	s5,124(sp)
    312c:	005af713          	andi	a4,s5,5
    3130:	00f71463          	bne	a4,a5,3138 <main+0xbbc>
    3134:	1040106f          	j	4238 <main+0x1cbc>
    3138:	4711                	li	a4,4
    313a:	02ea0563          	beq	s4,a4,3164 <main+0xbe8>
    313e:	4a8a                	lw	s5,128(sp)
    3140:	005af713          	andi	a4,s5,5
    3144:	00f71463          	bne	a4,a5,314c <main+0xbd0>
    3148:	0ea0106f          	j	4232 <main+0x1cb6>
    314c:	4799                	li	a5,6
    314e:	00fa1b63          	bne	s4,a5,3164 <main+0xbe8>
    3152:	4a9a                	lw	s5,132(sp)
    3154:	4795                	li	a5,5
    3156:	4b15                	li	s6,5
    3158:	005af713          	andi	a4,s5,5
    315c:	00f71463          	bne	a4,a5,3164 <main+0xbe8>
    3160:	7dd0006f          	j	413c <main+0x1bc0>
    3164:	6519                	lui	a0,0x6
    3166:	8c850513          	addi	a0,a0,-1848 # 58c8 <memcpy+0x70c>
    316a:	008020ef          	jal	ra,5172 <puts>
    316e:	c882                	sw	zero,80(sp)
    3170:	badd                	j	2b66 <main+0x5ea>
    3172:	92058de3          	beqz	a1,2aac <main+0x530>
    3176:	04514783          	lbu	a5,69(sp)
    317a:	4715                	li	a4,5
    317c:	0785                	addi	a5,a5,1
    317e:	0ff7f793          	zext.b	a5,a5
    3182:	b6e795e3          	bne	a5,a4,2cec <main+0x770>
    3186:	4785                	li	a5,1
    3188:	472d                	li	a4,11
    318a:	040102a3          	sb	zero,69(sp)
    318e:	c6be                	sw	a5,76(sp)
    3190:	c4ba                	sw	a4,72(sp)
    3192:	0af58763          	beq	a1,a5,3240 <main+0xcc4>
    3196:	229e                	lhu	a5,0(a3)
    3198:	6515                	lui	a0,0x5
    319a:	40c50513          	addi	a0,a0,1036 # 540c <memcpy+0x250>
    319e:	0047e793          	ori	a5,a5,4
    31a2:	a29e                	sh	a5,0(a3)
    31a4:	7ab010ef          	jal	ra,514e <printf>
    31a8:	6b95                	lui	s7,0x5
    31aa:	6515                	lui	a0,0x5
    31ac:	424b8593          	addi	a1,s7,1060 # 5424 <memcpy+0x268>
    31b0:	3e850513          	addi	a0,a0,1000 # 53e8 <memcpy+0x22c>
    31b4:	79b010ef          	jal	ra,514e <printf>
    31b8:	4601                	li	a2,0
    31ba:	800b0513          	addi	a0,s6,-2048
    31be:	4589                	li	a1,2
    31c0:	54e010ef          	jal	ra,470e <GPIO_WriteBit>
    31c4:	40013b37          	lui	s6,0x40013
    31c8:	c00b0513          	addi	a0,s6,-1024 # 40012c00 <_eusrstack+0x2000dc00>
    31cc:	4581                	li	a1,0
    31ce:	8001ac23          	sw	zero,-2024(gp) # 20000038 <TIM1_CNT>
    31d2:	015010ef          	jal	ra,49e6 <TIM_SetCounter>
    31d6:	c00b0513          	addi	a0,s6,-1024
    31da:	4605                	li	a2,1
    31dc:	4b0d                	li	s6,3
    31de:	4585                	li	a1,1
    31e0:	7f4010ef          	jal	ra,49d4 <TIM_ITConfig>
    31e4:	8d5b56e3          	bge	s6,s5,2ab0 <main+0x534>
    31e8:	6515                	lui	a0,0x5
    31ea:	424b8593          	addi	a1,s7,1060
    31ee:	3d450513          	addi	a0,a0,980 # 53d4 <memcpy+0x218>
    31f2:	75d010ef          	jal	ra,514e <printf>
    31f6:	016a1463          	bne	s4,s6,31fe <main+0xc82>
    31fa:	7ff0006f          	j	41f8 <main+0x1c7c>
    31fe:	40011a37          	lui	s4,0x40011
    3202:	002af613          	andi	a2,s5,2
    3206:	6585                	lui	a1,0x1
    3208:	00163613          	seqz	a2,a2
    320c:	80058593          	addi	a1,a1,-2048 # 800 <__stack_size>
    3210:	c00a0513          	addi	a0,s4,-1024 # 40010c00 <_eusrstack+0x2000bc00>
    3214:	4fa010ef          	jal	ra,470e <GPIO_WriteBit>
    3218:	fffac613          	not	a2,s5
    321c:	8a05                	andi	a2,a2,1
    321e:	6585                	lui	a1,0x1
    3220:	c00a0513          	addi	a0,s4,-1024
    3224:	4ea010ef          	jal	ra,470e <GPIO_WriteBit>
    3228:	47a6                	lw	a5,72(sp)
    322a:	02100713          	li	a4,33
    322e:	88f776e3          	bgeu	a4,a5,2aba <main+0x53e>
    3232:	6519                	lui	a0,0x6
    3234:	64100593          	li	a1,1601
    3238:	b2850513          	addi	a0,a0,-1240 # 5b28 <memcpy+0x96c>
    323c:	fcffc0ef          	jal	ra,20a <__assert>
    3240:	229e                	lhu	a5,0(a3)
    3242:	6515                	lui	a0,0x5
    3244:	4585                	li	a1,1
    3246:	07c2                	slli	a5,a5,0x10
    3248:	83c1                	srli	a5,a5,0x10
    324a:	9bed                	andi	a5,a5,-5
    324c:	07c2                	slli	a5,a5,0x10
    324e:	83c1                	srli	a5,a5,0x10
    3250:	a29e                	sh	a5,0(a3)
    3252:	40c50513          	addi	a0,a0,1036 # 540c <memcpy+0x250>
    3256:	6f9010ef          	jal	ra,514e <printf>
    325a:	6b95                	lui	s7,0x5
    325c:	6515                	lui	a0,0x5
    325e:	424b8593          	addi	a1,s7,1060 # 5424 <memcpy+0x268>
    3262:	3e850513          	addi	a0,a0,1000 # 53e8 <memcpy+0x22c>
    3266:	6e9010ef          	jal	ra,514e <printf>
    326a:	4601                	li	a2,0
    326c:	4589                	li	a1,2
    326e:	800b0513          	addi	a0,s6,-2048
    3272:	49c010ef          	jal	ra,470e <GPIO_WriteBit>
    3276:	40013a37          	lui	s4,0x40013
    327a:	4581                	li	a1,0
    327c:	c00a0513          	addi	a0,s4,-1024 # 40012c00 <_eusrstack+0x2000dc00>
    3280:	8001ac23          	sw	zero,-2024(gp) # 20000038 <TIM1_CNT>
    3284:	762010ef          	jal	ra,49e6 <TIM_SetCounter>
    3288:	4605                	li	a2,1
    328a:	4585                	li	a1,1
    328c:	c00a0513          	addi	a0,s4,-1024
    3290:	744010ef          	jal	ra,49d4 <TIM_ITConfig>
    3294:	478d                	li	a5,3
    3296:	8157dde3          	bge	a5,s5,2ab0 <main+0x534>
    329a:	6515                	lui	a0,0x5
    329c:	424b8593          	addi	a1,s7,1060
    32a0:	3d450513          	addi	a0,a0,980 # 53d4 <memcpy+0x218>
    32a4:	6ab010ef          	jal	ra,514e <printf>
    32a8:	bf99                	j	31fe <main+0xc82>
    32aa:	4551                	li	a0,20
    32ac:	045010ef          	jal	ra,4af0 <Delay_Us>
    32b0:	4ad6                	lw	s5,84(sp)
    32b2:	5772                	lw	a4,60(sp)
    32b4:	001ac783          	lbu	a5,1(s5)
    32b8:	8385                	srli	a5,a5,0x1
    32ba:	8b9d                	andi	a5,a5,7
    32bc:	0e071763          	bnez	a4,33aa <main+0xe2e>
    32c0:	14100713          	li	a4,321
    32c4:	04100693          	li	a3,65
    32c8:	4606                	lw	a2,64(sp)
    32ca:	4566                	lw	a0,88(sp)
    32cc:	07a6                	slli	a5,a5,0x9
    32ce:	e239                	bnez	a2,3314 <main+0xd98>
    32d0:	8edd                	or	a3,a3,a5
    32d2:	a116                	sh	a3,0(a0)
    32d4:	4589                	li	a1,2
    32d6:	e8bfc0ef          	jal	ra,160 <PD_Send>
    32da:	002ac783          	lbu	a5,2(s5)
    32de:	4711                	li	a4,4
    32e0:	01f7f693          	andi	a3,a5,31
    32e4:	cee69fe3          	bne	a3,a4,2fe2 <main+0xa66>
    32e8:	8399                	srli	a5,a5,0x6
    32ea:	4705                	li	a4,1
    32ec:	00e79463          	bne	a5,a4,32f4 <main+0xd78>
    32f0:	5610006f          	j	4050 <main+0x1ad4>
    32f4:	4709                	li	a4,2
    32f6:	d2e787e3          	beq	a5,a4,3024 <main+0xaa8>
    32fa:	85a2                	mv	a1,s0
    32fc:	03200513          	li	a0,50
    3300:	c09fe0ef          	jal	ra,1f08 <PD_Delay>
    3304:	d20510e3          	bnez	a0,3024 <main+0xaa8>
    3308:	1bfd                	addi	s7,s7,-1
    330a:	d00b8de3          	beqz	s7,3024 <main+0xaa8>
    330e:	03200a93          	li	s5,50
    3312:	b9d1                	j	2fe6 <main+0xa6a>
    3314:	8fd9                	or	a5,a5,a4
    3316:	a11e                	sh	a5,0(a0)
    3318:	4601                	li	a2,0
    331a:	bf6d                	j	32d4 <main+0xd58>
    331c:	4785                	li	a5,1
    331e:	c4be                	sw	a5,72(sp)
    3320:	847ff06f          	j	2b66 <main+0x5ea>
    3324:	4551                	li	a0,20
    3326:	7ca010ef          	jal	ra,4af0 <Delay_Us>
    332a:	4a56                	lw	s4,84(sp)
    332c:	5772                	lw	a4,60(sp)
    332e:	001a4783          	lbu	a5,1(s4)
    3332:	8385                	srli	a5,a5,0x1
    3334:	8b9d                	andi	a5,a5,7
    3336:	ef3d                	bnez	a4,33b4 <main+0xe38>
    3338:	14100713          	li	a4,321
    333c:	04100693          	li	a3,65
    3340:	4606                	lw	a2,64(sp)
    3342:	e211                	bnez	a2,3346 <main+0xdca>
    3344:	8736                	mv	a4,a3
    3346:	4566                	lw	a0,88(sp)
    3348:	07a6                	slli	a5,a5,0x9
    334a:	8f5d                	or	a4,a4,a5
    334c:	a11a                	sh	a4,0(a0)
    334e:	4601                	li	a2,0
    3350:	4589                	li	a1,2
    3352:	e0ffc0ef          	jal	ra,160 <PD_Send>
    3356:	005a4783          	lbu	a5,5(s4)
    335a:	4705                	li	a4,1
    335c:	8391                	srli	a5,a5,0x4
    335e:	8b9d                	andi	a5,a5,7
    3360:	92e79be3          	bne	a5,a4,2c96 <main+0x71a>
    3364:	47bd                	li	a5,15
    3366:	c4be                	sw	a5,72(sp)
    3368:	ffeff06f          	j	2b66 <main+0x5ea>
    336c:	00070537          	lui	a0,0x70
    3370:	f00fe0ef          	jal	ra,1a70 <WS2812_SetColor>
    3374:	40013a37          	lui	s4,0x40013
    3378:	c00a0513          	addi	a0,s4,-1024 # 40012c00 <_eusrstack+0x2000dc00>
    337c:	4581                	li	a1,0
    337e:	8001ac23          	sw	zero,-2024(gp) # 20000038 <TIM1_CNT>
    3382:	664010ef          	jal	ra,49e6 <TIM_SetCounter>
    3386:	c00a0513          	addi	a0,s4,-1024
    338a:	4605                	li	a2,1
    338c:	4585                	li	a1,1
    338e:	646010ef          	jal	ra,49d4 <TIM_ITConfig>
    3392:	47a2                	lw	a5,8(sp)
    3394:	6515                	lui	a0,0x5
    3396:	69450513          	addi	a0,a0,1684 # 5694 <memcpy+0x4d8>
    339a:	d0be                	sw	a5,96(sp)
    339c:	4785                	li	a5,1
    339e:	c482                	sw	zero,72(sp)
    33a0:	c8be                	sw	a5,80(sp)
    33a2:	5d1010ef          	jal	ra,5172 <puts>
    33a6:	fc0ff06f          	j	2b66 <main+0x5ea>
    33aa:	16100713          	li	a4,353
    33ae:	06100693          	li	a3,97
    33b2:	bf19                	j	32c8 <main+0xd4c>
    33b4:	16100713          	li	a4,353
    33b8:	06100693          	li	a3,97
    33bc:	b751                	j	3340 <main+0xdc4>
    33be:	6515                	lui	a0,0x5
    33c0:	6b050513          	addi	a0,a0,1712 # 56b0 <memcpy+0x4f4>
    33c4:	5af010ef          	jal	ra,5172 <puts>
    33c8:	c882                	sw	zero,80(sp)
    33ca:	f9cff06f          	j	2b66 <main+0x5ea>
    33ce:	ce82                	sw	zero,92(sp)
    33d0:	40027737          	lui	a4,0x40027
    33d4:	231e                	lhu	a5,0(a4)
    33d6:	6699                	lui	a3,0x6
    33d8:	6519                	lui	a0,0x6
    33da:	8fd5                	or	a5,a5,a3
    33dc:	a31e                	sh	a5,0(a4)
    33de:	e000e7b7          	lui	a5,0xe000e
    33e2:	00020737          	lui	a4,0x20
    33e6:	10e7a223          	sw	a4,260(a5) # e000e104 <_eusrstack+0xc0009104>
    33ea:	9b850513          	addi	a0,a0,-1608 # 59b8 <memcpy+0x7fc>
    33ee:	585010ef          	jal	ra,5172 <puts>
    33f2:	4581                	li	a1,0
    33f4:	66800513          	li	a0,1640
    33f8:	ae6fe0ef          	jal	ra,16de <IIC_WriteRegI.isra.0>
    33fc:	30900593          	li	a1,777
    3400:	66000513          	li	a0,1632
    3404:	adafe0ef          	jal	ra,16de <IIC_WriteRegI.isra.0>
    3408:	4509                	li	a0,2
    340a:	d882                	sw	zero,112(sp)
    340c:	71a010ef          	jal	ra,4b26 <Delay_Ms>
    3410:	4591                	li	a1,4
    3412:	1888                	addi	a0,sp,112
    3414:	d0bfd0ef          	jal	ra,111e <IIC_ReadReg.constprop.0.isra.0>
    3418:	5ac6                	lw	s5,112(sp)
    341a:	6519                	lui	a0,0x6
    341c:	9cc50513          	addi	a0,a0,-1588 # 59cc <memcpy+0x810>
    3420:	85d6                	mv	a1,s5
    3422:	52d010ef          	jal	ra,514e <printf>
    3426:	000a9463          	bnez	s5,342e <main+0xeb2>
    342a:	5510006f          	j	417a <main+0x1bfe>
    342e:	10000593          	li	a1,256
    3432:	66800513          	li	a0,1640
    3436:	aa8fe0ef          	jal	ra,16de <IIC_WriteRegI.isra.0>
    343a:	20600593          	li	a1,518
    343e:	66c00513          	li	a0,1644
    3442:	a9cfe0ef          	jal	ra,16de <IIC_WriteRegI.isra.0>
    3446:	10800593          	li	a1,264
    344a:	66000513          	li	a0,1632
    344e:	a90fe0ef          	jal	ra,16de <IIC_WriteRegI.isra.0>
    3452:	4509                	li	a0,2
    3454:	6d2010ef          	jal	ra,4b26 <Delay_Ms>
    3458:	10800593          	li	a1,264
    345c:	66800513          	li	a0,1640
    3460:	a7efe0ef          	jal	ra,16de <IIC_WriteRegI.isra.0>
    3464:	4585                	li	a1,1
    3466:	66c00513          	li	a0,1644
    346a:	a74fe0ef          	jal	ra,16de <IIC_WriteRegI.isra.0>
    346e:	45a1                	li	a1,8
    3470:	66000513          	li	a0,1632
    3474:	a6afe0ef          	jal	ra,16de <IIC_WriteRegI.isra.0>
    3478:	4509                	li	a0,2
    347a:	6ac010ef          	jal	ra,4b26 <Delay_Ms>
    347e:	6519                	lui	a0,0x6
    3480:	9f450513          	addi	a0,a0,-1548 # 59f4 <memcpy+0x838>
    3484:	4ef010ef          	jal	ra,5172 <puts>
    3488:	10300593          	li	a1,259
    348c:	66800513          	li	a0,1640
    3490:	a4efe0ef          	jal	ra,16de <IIC_WriteRegI.isra.0>
    3494:	30300593          	li	a1,771
    3498:	66c00513          	li	a0,1644
    349c:	a42fe0ef          	jal	ra,16de <IIC_WriteRegI.isra.0>
    34a0:	10800593          	li	a1,264
    34a4:	66000513          	li	a0,1632
    34a8:	a36fe0ef          	jal	ra,16de <IIC_WriteRegI.isra.0>
    34ac:	4509                	li	a0,2
    34ae:	678010ef          	jal	ra,4b26 <Delay_Ms>
    34b2:	02100593          	li	a1,33
    34b6:	6e400513          	li	a0,1764
    34ba:	a24fe0ef          	jal	ra,16de <IIC_WriteRegI.isra.0>
    34be:	f50005b7          	lui	a1,0xf5000
    34c2:	02a58593          	addi	a1,a1,42 # f500002a <_eusrstack+0xd4ffb02a>
    34c6:	6d800513          	li	a0,1752
    34ca:	a14fe0ef          	jal	ra,16de <IIC_WriteRegI.isra.0>
    34ce:	00033a37          	lui	s4,0x33
    34d2:	084a0593          	addi	a1,s4,132 # 33084 <main.c.ab49d0c1+0x27a1c>
    34d6:	6a000513          	li	a0,1696
    34da:	a04fe0ef          	jal	ra,16de <IIC_WriteRegI.isra.0>
    34de:	185a0593          	addi	a1,s4,389
    34e2:	6a000513          	li	a0,1696
    34e6:	9f8fe0ef          	jal	ra,16de <IIC_WriteRegI.isra.0>
    34ea:	4585                	li	a1,1
    34ec:	60000513          	li	a0,1536
    34f0:	9eefe0ef          	jal	ra,16de <IIC_WriteRegI.isra.0>
    34f4:	6a89                	lui	s5,0x2
    34f6:	4505                	li	a0,1
    34f8:	62e010ef          	jal	ra,4b26 <Delay_Ms>
    34fc:	854e                	mv	a0,s3
    34fe:	fc8fd0ef          	jal	ra,cc6 <IIC_ReadReg.constprop.1.isra.0>
    3502:	5a12                	lw	s4,36(sp)
    3504:	015a77b3          	and	a5,s4,s5
    3508:	d7fd                	beqz	a5,34f6 <main+0xf7a>
    350a:	6519                	lui	a0,0x6
    350c:	a0c50513          	addi	a0,a0,-1524 # 5a0c <memcpy+0x850>
    3510:	463010ef          	jal	ra,5172 <puts>
    3514:	008a5593          	srli	a1,s4,0x8
    3518:	6b19                	lui	s6,0x6
    351a:	89fd                	andi	a1,a1,31
    351c:	a18b0513          	addi	a0,s6,-1512 # 5a18 <memcpy+0x85c>
    3520:	42f010ef          	jal	ra,514e <printf>
    3524:	6a99                	lui	s5,0x6
    3526:	07fa7593          	andi	a1,s4,127
    352a:	a28a8513          	addi	a0,s5,-1496 # 5a28 <memcpy+0x86c>
    352e:	421010ef          	jal	ra,514e <printf>
    3532:	02200593          	li	a1,34
    3536:	6e400513          	li	a0,1764
    353a:	9a4fe0ef          	jal	ra,16de <IIC_WriteRegI.isra.0>
    353e:	10300593          	li	a1,259
    3542:	66800513          	li	a0,1640
    3546:	998fe0ef          	jal	ra,16de <IIC_WriteRegI.isra.0>
    354a:	30300593          	li	a1,771
    354e:	66c00513          	li	a0,1644
    3552:	98cfe0ef          	jal	ra,16de <IIC_WriteRegI.isra.0>
    3556:	10800593          	li	a1,264
    355a:	66000513          	li	a0,1632
    355e:	980fe0ef          	jal	ra,16de <IIC_WriteRegI.isra.0>
    3562:	4509                	li	a0,2
    3564:	5c2010ef          	jal	ra,4b26 <Delay_Ms>
    3568:	00033a37          	lui	s4,0x33
    356c:	084a0593          	addi	a1,s4,132 # 33084 <main.c.ab49d0c1+0x27a1c>
    3570:	6a000513          	li	a0,1696
    3574:	96afe0ef          	jal	ra,16de <IIC_WriteRegI.isra.0>
    3578:	285a0593          	addi	a1,s4,645
    357c:	6a000513          	li	a0,1696
    3580:	95efe0ef          	jal	ra,16de <IIC_WriteRegI.isra.0>
    3584:	6b89                	lui	s7,0x2
    3586:	4505                	li	a0,1
    3588:	59e010ef          	jal	ra,4b26 <Delay_Ms>
    358c:	854e                	mv	a0,s3
    358e:	f38fd0ef          	jal	ra,cc6 <IIC_ReadReg.constprop.1.isra.0>
    3592:	5a12                	lw	s4,36(sp)
    3594:	017a77b3          	and	a5,s4,s7
    3598:	d7fd                	beqz	a5,3586 <main+0x100a>
    359a:	6519                	lui	a0,0x6
    359c:	a3c50513          	addi	a0,a0,-1476 # 5a3c <memcpy+0x880>
    35a0:	3d3010ef          	jal	ra,5172 <puts>
    35a4:	008a5593          	srli	a1,s4,0x8
    35a8:	89fd                	andi	a1,a1,31
    35aa:	a18b0513          	addi	a0,s6,-1512
    35ae:	3a1010ef          	jal	ra,514e <printf>
    35b2:	07fa7593          	andi	a1,s4,127
    35b6:	a28a8513          	addi	a0,s5,-1496
    35ba:	395010ef          	jal	ra,514e <printf>
    35be:	000335b7          	lui	a1,0x33
    35c2:	08558593          	addi	a1,a1,133 # 33085 <main.c.ab49d0c1+0x27a1d>
    35c6:	6a000513          	li	a0,1696
    35ca:	914fe0ef          	jal	ra,16de <IIC_WriteRegI.isra.0>
    35ce:	10200593          	li	a1,258
    35d2:	66800513          	li	a0,1640
    35d6:	908fe0ef          	jal	ra,16de <IIC_WriteRegI.isra.0>
    35da:	02000593          	li	a1,32
    35de:	66c00513          	li	a0,1644
    35e2:	8fcfe0ef          	jal	ra,16de <IIC_WriteRegI.isra.0>
    35e6:	45a1                	li	a1,8
    35e8:	66000513          	li	a0,1632
    35ec:	8f2fe0ef          	jal	ra,16de <IIC_WriteRegI.isra.0>
    35f0:	4509                	li	a0,2
    35f2:	534010ef          	jal	ra,4b26 <Delay_Ms>
    35f6:	20000593          	li	a1,512
    35fa:	66800513          	li	a0,1640
    35fe:	d882                	sw	zero,112(sp)
    3600:	da82                	sw	zero,116(sp)
    3602:	8dcfe0ef          	jal	ra,16de <IIC_WriteRegI.isra.0>
    3606:	60900593          	li	a1,1545
    360a:	66000513          	li	a0,1632
    360e:	8d0fe0ef          	jal	ra,16de <IIC_WriteRegI.isra.0>
    3612:	4505                	li	a0,1
    3614:	512010ef          	jal	ra,4b26 <Delay_Ms>
    3618:	459d                	li	a1,7
    361a:	1888                	addi	a0,sp,112
    361c:	b03fd0ef          	jal	ra,111e <IIC_ReadReg.constprop.0.isra.0>
    3620:	6519                	lui	a0,0x6
    3622:	a4850513          	addi	a0,a0,-1464 # 5a48 <memcpy+0x88c>
    3626:	34d010ef          	jal	ra,5172 <puts>
    362a:	55c6                	lw	a1,112(sp)
    362c:	6519                	lui	a0,0x6
    362e:	a5c50513          	addi	a0,a0,-1444 # 5a5c <memcpy+0x8a0>
    3632:	31d010ef          	jal	ra,514e <printf>
    3636:	55d6                	lw	a1,116(sp)
    3638:	6519                	lui	a0,0x6
    363a:	a6c50513          	addi	a0,a0,-1428 # 5a6c <memcpy+0x8b0>
    363e:	311010ef          	jal	ra,514e <printf>
    3642:	10a00593          	li	a1,266
    3646:	66800513          	li	a0,1640
    364a:	894fe0ef          	jal	ra,16de <IIC_WriteRegI.isra.0>
    364e:	4581                	li	a1,0
    3650:	66c00513          	li	a0,1644
    3654:	88afe0ef          	jal	ra,16de <IIC_WriteRegI.isra.0>
    3658:	45a1                	li	a1,8
    365a:	66000513          	li	a0,1632
    365e:	880fe0ef          	jal	ra,16de <IIC_WriteRegI.isra.0>
    3662:	4509                	li	a0,2
    3664:	4c2010ef          	jal	ra,4b26 <Delay_Ms>
    3668:	60000593          	li	a1,1536
    366c:	66800513          	li	a0,1640
    3670:	86efe0ef          	jal	ra,16de <IIC_WriteRegI.isra.0>
    3674:	45a5                	li	a1,9
    3676:	66000513          	li	a0,1632
    367a:	864fe0ef          	jal	ra,16de <IIC_WriteRegI.isra.0>
    367e:	4509                	li	a0,2
    3680:	d882                	sw	zero,112(sp)
    3682:	4a4010ef          	jal	ra,4b26 <Delay_Ms>
    3686:	4585                	li	a1,1
    3688:	1888                	addi	a0,sp,112
    368a:	a95fd0ef          	jal	ra,111e <IIC_ReadReg.constprop.0.isra.0>
    368e:	55c6                	lw	a1,112(sp)
    3690:	6519                	lui	a0,0x6
    3692:	a7c50513          	addi	a0,a0,-1412 # 5a7c <memcpy+0x8c0>
    3696:	2b9010ef          	jal	ra,514e <printf>
    369a:	4595                	li	a1,5
    369c:	66800513          	li	a0,1640
    36a0:	83efe0ef          	jal	ra,16de <IIC_WriteRegI.isra.0>
    36a4:	10900593          	li	a1,265
    36a8:	66000513          	li	a0,1632
    36ac:	832fe0ef          	jal	ra,16de <IIC_WriteRegI.isra.0>
    36b0:	4509                	li	a0,2
    36b2:	d882                	sw	zero,112(sp)
    36b4:	472010ef          	jal	ra,4b26 <Delay_Ms>
    36b8:	4589                	li	a1,2
    36ba:	1888                	addi	a0,sp,112
    36bc:	a63fd0ef          	jal	ra,111e <IIC_ReadReg.constprop.0.isra.0>
    36c0:	55c6                	lw	a1,112(sp)
    36c2:	6519                	lui	a0,0x6
    36c4:	a8850513          	addi	a0,a0,-1400 # 5a88 <memcpy+0x8cc>
    36c8:	287010ef          	jal	ra,514e <printf>
    36cc:	05000593          	li	a1,80
    36d0:	66800513          	li	a0,1640
    36d4:	80afe0ef          	jal	ra,16de <IIC_WriteRegI.isra.0>
    36d8:	45d1                	li	a1,20
    36da:	66000513          	li	a0,1632
    36de:	800fe0ef          	jal	ra,16de <IIC_WriteRegI.isra.0>
    36e2:	4505                	li	a0,1
    36e4:	442010ef          	jal	ra,4b26 <Delay_Ms>
    36e8:	d19fc0ef          	jal	ra,400 <IIC_ReadRegI.constprop.0>
    36ec:	01055a13          	srli	s4,a0,0x10
    36f0:	00455793          	srli	a5,a0,0x4
    36f4:	007a7a13          	andi	s4,s4,7
    36f8:	8bbd                	andi	a5,a5,15
    36fa:	00fa6a33          	or	s4,s4,a5
    36fe:	2e0a16e3          	bnez	s4,41ea <main+0x1c6e>
    3702:	4581                	li	a1,0
    3704:	66c00513          	li	a0,1644
    3708:	fd7fd0ef          	jal	ra,16de <IIC_WriteRegI.isra.0>
    370c:	4591                	li	a1,4
    370e:	66000513          	li	a0,1632
    3712:	fcdfd0ef          	jal	ra,16de <IIC_WriteRegI.isra.0>
    3716:	4505                	li	a0,1
    3718:	40e010ef          	jal	ra,4b26 <Delay_Ms>
    371c:	45d5                	li	a1,21
    371e:	66000513          	li	a0,1632
    3722:	fbdfd0ef          	jal	ra,16de <IIC_WriteRegI.isra.0>
    3726:	4505                	li	a0,1
    3728:	3fe010ef          	jal	ra,4b26 <Delay_Ms>
    372c:	07010b13          	addi	s6,sp,112
    3730:	10000b93          	li	s7,256
    3734:	4c41                	li	s8,16
    3736:	87de                	mv	a5,s7
    3738:	017c5363          	bge	s8,s7,373e <main+0x11c2>
    373c:	47c1                	li	a5,16
    373e:	17fd                	addi	a5,a5,-1
    3740:	00879593          	slli	a1,a5,0x8
    3744:	0055e593          	ori	a1,a1,5
    3748:	66000513          	li	a0,1632
    374c:	f93fd0ef          	jal	ra,16de <IIC_WriteRegI.isra.0>
    3750:	4505                	li	a0,1
    3752:	3d4010ef          	jal	ra,4b26 <Delay_Ms>
    3756:	cabfc0ef          	jal	ra,400 <IIC_ReadRegI.constprop.0>
    375a:	00855a93          	srli	s5,a0,0x8
    375e:	0ffafa93          	zext.b	s5,s5
    3762:	855a                	mv	a0,s6
    3764:	85d6                	mv	a1,s5
    3766:	415b8bb3          	sub	s7,s7,s5
    376a:	9b5fd0ef          	jal	ra,111e <IIC_ReadReg.constprop.0.isra.0>
    376e:	9b56                	add	s6,s6,s5
    3770:	fc0b93e3          	bnez	s7,3736 <main+0x11ba>
    3774:	45c5                	li	a1,17
    3776:	66000513          	li	a0,1632
    377a:	f65fd0ef          	jal	ra,16de <IIC_WriteRegI.isra.0>
    377e:	6519                	lui	a0,0x6
    3780:	ab050513          	addi	a0,a0,-1360 # 5ab0 <memcpy+0x8f4>
    3784:	1cb010ef          	jal	ra,514e <printf>
    3788:	6c19                	lui	s8,0x6
    378a:	6a99                	lui	s5,0x6
    378c:	6d99                	lui	s11,0x6
    378e:	02000b93          	li	s7,32
    3792:	189c                	addi	a5,sp,112
    3794:	01478b33          	add	s6,a5,s4
    3798:	000b4603          	lbu	a2,0(s6)
    379c:	86cd8593          	addi	a1,s11,-1940 # 586c <memcpy+0x6b0>
    37a0:	abca8513          	addi	a0,s5,-1348 # 5abc <memcpy+0x900>
    37a4:	1ab010ef          	jal	ra,514e <printf>
    37a8:	4c85                	li	s9,1
    37aa:	019b0733          	add	a4,s6,s9
    37ae:	2310                	lbu	a2,0(a4)
    37b0:	0c85                	addi	s9,s9,1
    37b2:	ab8c0593          	addi	a1,s8,-1352 # 5ab8 <memcpy+0x8fc>
    37b6:	abca8513          	addi	a0,s5,-1348
    37ba:	195010ef          	jal	ra,514e <printf>
    37be:	ff7c96e3          	bne	s9,s7,37aa <main+0x122e>
    37c2:	020a0a13          	addi	s4,s4,32
    37c6:	10000793          	li	a5,256
    37ca:	fcfa14e3          	bne	s4,a5,3792 <main+0x1216>
    37ce:	6515                	lui	a0,0x5
    37d0:	65850513          	addi	a0,a0,1624 # 5658 <memcpy+0x49c>
    37d4:	19f010ef          	jal	ra,5172 <puts>
    37d8:	058005b7          	lui	a1,0x5800
    37dc:	10058593          	addi	a1,a1,256 # 5800100 <main.c.ab49d0c1+0x57f4a98>
    37e0:	45000513          	li	a0,1104
    37e4:	6a95                	lui	s5,0x5
    37e6:	ef9fd0ef          	jal	ra,16de <IIC_WriteRegI.isra.0>
    37ea:	2f8a8a93          	addi	s5,s5,760 # 52f8 <memcpy+0x13c>
    37ee:	00caa783          	lw	a5,12(s5)
    37f2:	000aa603          	lw	a2,0(s5)
    37f6:	004aa683          	lw	a3,4(s5)
    37fa:	008aa703          	lw	a4,8(s5)
    37fe:	40011b37          	lui	s6,0x40011
    3802:	800b0513          	addi	a0,s6,-2048 # 40010800 <_eusrstack+0x2000b800>
    3806:	02000593          	li	a1,32
    380a:	d03e                	sw	a5,32(sp)
    380c:	800b0a13          	addi	s4,s6,-2048
    3810:	ca32                	sw	a2,20(sp)
    3812:	cc36                	sw	a3,24(sp)
    3814:	ce3a                	sw	a4,28(sp)
    3816:	6e7000ef          	jal	ra,46fc <GPIO_SetBits>
    381a:	04000593          	li	a1,64
    381e:	8552                	mv	a0,s4
    3820:	6dd000ef          	jal	ra,46fc <GPIO_SetBits>
    3824:	000a2783          	lw	a5,0(s4)
    3828:	ff100bb7          	lui	s7,0xff100
    382c:	1bfd                	addi	s7,s7,-1 # ff0fffff <_eusrstack+0xdf0fafff>
    382e:	0177f7b3          	and	a5,a5,s7
    3832:	00300db7          	lui	s11,0x300
    3836:	01b7e7b3          	or	a5,a5,s11
    383a:	00fa2023          	sw	a5,0(s4)
    383e:	0001                	nop
    3840:	0001                	nop
    3842:	0001                	nop
    3844:	02000593          	li	a1,32
    3848:	8552                	mv	a0,s4
    384a:	6c1000ef          	jal	ra,470a <GPIO_ResetBits>
    384e:	0001                	nop
    3850:	0001                	nop
    3852:	0001                	nop
    3854:	04000593          	li	a1,64
    3858:	8552                	mv	a0,s4
    385a:	6b1000ef          	jal	ra,470a <GPIO_ResetBits>
    385e:	0001                	nop
    3860:	0001                	nop
    3862:	0001                	nop
    3864:	000a2783          	lw	a5,0(s4)
    3868:	4c21                	li	s8,8
    386a:	0d000b13          	li	s6,208
    386e:	0177f7b3          	and	a5,a5,s7
    3872:	01b7e7b3          	or	a5,a5,s11
    3876:	00fa2023          	sw	a5,0(s4)
    387a:	007b5613          	srli	a2,s6,0x7
    387e:	02000593          	li	a1,32
    3882:	8552                	mv	a0,s4
    3884:	68b000ef          	jal	ra,470e <GPIO_WriteBit>
    3888:	0001                	nop
    388a:	0001                	nop
    388c:	0001                	nop
    388e:	04000593          	li	a1,64
    3892:	8552                	mv	a0,s4
    3894:	669000ef          	jal	ra,46fc <GPIO_SetBits>
    3898:	0001                	nop
    389a:	0001                	nop
    389c:	0001                	nop
    389e:	04000593          	li	a1,64
    38a2:	8552                	mv	a0,s4
    38a4:	0b06                	slli	s6,s6,0x1
    38a6:	1c7d                	addi	s8,s8,-1
    38a8:	663000ef          	jal	ra,470a <GPIO_ResetBits>
    38ac:	0ffb7b13          	zext.b	s6,s6
    38b0:	fc0c15e3          	bnez	s8,387a <main+0x12fe>
    38b4:	40011a37          	lui	s4,0x40011
    38b8:	800a2783          	lw	a5,-2048(s4) # 40010800 <_eusrstack+0x2000b800>
    38bc:	ff100b37          	lui	s6,0xff100
    38c0:	1b7d                	addi	s6,s6,-1 # ff0fffff <_eusrstack+0xdf0fafff>
    38c2:	0167f7b3          	and	a5,a5,s6
    38c6:	00800737          	lui	a4,0x800
    38ca:	8fd9                	or	a5,a5,a4
    38cc:	800a0a13          	addi	s4,s4,-2048
    38d0:	00fa2023          	sw	a5,0(s4)
    38d4:	0001                	nop
    38d6:	0001                	nop
    38d8:	0001                	nop
    38da:	04000593          	li	a1,64
    38de:	8552                	mv	a0,s4
    38e0:	61d000ef          	jal	ra,46fc <GPIO_SetBits>
    38e4:	0001                	nop
    38e6:	0001                	nop
    38e8:	0001                	nop
    38ea:	02000593          	li	a1,32
    38ee:	8552                	mv	a0,s4
    38f0:	603000ef          	jal	ra,46f2 <GPIO_ReadInputDataBit>
    38f4:	8baa                	mv	s7,a0
    38f6:	04000593          	li	a1,64
    38fa:	8552                	mv	a0,s4
    38fc:	60f000ef          	jal	ra,470a <GPIO_ResetBits>
    3900:	0001                	nop
    3902:	0001                	nop
    3904:	0001                	nop
    3906:	02000593          	li	a1,32
    390a:	8552                	mv	a0,s4
    390c:	5f1000ef          	jal	ra,46fc <GPIO_SetBits>
    3910:	240b9d63          	bnez	s7,3b6a <main+0x15ee>
    3914:	000a2783          	lw	a5,0(s4)
    3918:	00300737          	lui	a4,0x300
    391c:	4ba1                	li	s7,8
    391e:	0167f7b3          	and	a5,a5,s6
    3922:	8fd9                	or	a5,a5,a4
    3924:	00fa2023          	sw	a5,0(s4)
    3928:	4b11                	li	s6,4
    392a:	007b5613          	srli	a2,s6,0x7
    392e:	02000593          	li	a1,32
    3932:	8552                	mv	a0,s4
    3934:	5db000ef          	jal	ra,470e <GPIO_WriteBit>
    3938:	0001                	nop
    393a:	0001                	nop
    393c:	0001                	nop
    393e:	04000593          	li	a1,64
    3942:	8552                	mv	a0,s4
    3944:	5b9000ef          	jal	ra,46fc <GPIO_SetBits>
    3948:	0001                	nop
    394a:	0001                	nop
    394c:	0001                	nop
    394e:	04000593          	li	a1,64
    3952:	8552                	mv	a0,s4
    3954:	0b06                	slli	s6,s6,0x1
    3956:	1bfd                	addi	s7,s7,-1
    3958:	5b3000ef          	jal	ra,470a <GPIO_ResetBits>
    395c:	0ffb7b13          	zext.b	s6,s6
    3960:	fc0b95e3          	bnez	s7,392a <main+0x13ae>
    3964:	40011a37          	lui	s4,0x40011
    3968:	800a2783          	lw	a5,-2048(s4) # 40010800 <_eusrstack+0x2000b800>
    396c:	ff100b37          	lui	s6,0xff100
    3970:	1b7d                	addi	s6,s6,-1 # ff0fffff <_eusrstack+0xdf0fafff>
    3972:	0167f7b3          	and	a5,a5,s6
    3976:	00800737          	lui	a4,0x800
    397a:	8fd9                	or	a5,a5,a4
    397c:	800a0a13          	addi	s4,s4,-2048
    3980:	00fa2023          	sw	a5,0(s4)
    3984:	0001                	nop
    3986:	0001                	nop
    3988:	0001                	nop
    398a:	04000593          	li	a1,64
    398e:	8552                	mv	a0,s4
    3990:	56d000ef          	jal	ra,46fc <GPIO_SetBits>
    3994:	0001                	nop
    3996:	0001                	nop
    3998:	0001                	nop
    399a:	02000593          	li	a1,32
    399e:	8552                	mv	a0,s4
    39a0:	553000ef          	jal	ra,46f2 <GPIO_ReadInputDataBit>
    39a4:	8baa                	mv	s7,a0
    39a6:	04000593          	li	a1,64
    39aa:	8552                	mv	a0,s4
    39ac:	55f000ef          	jal	ra,470a <GPIO_ResetBits>
    39b0:	0001                	nop
    39b2:	0001                	nop
    39b4:	0001                	nop
    39b6:	02000593          	li	a1,32
    39ba:	8552                	mv	a0,s4
    39bc:	541000ef          	jal	ra,46fc <GPIO_SetBits>
    39c0:	1a0b9563          	bnez	s7,3b6a <main+0x15ee>
    39c4:	000a2783          	lw	a5,0(s4)
    39c8:	00300737          	lui	a4,0x300
    39cc:	4ba1                	li	s7,8
    39ce:	0167f7b3          	and	a5,a5,s6
    39d2:	8fd9                	or	a5,a5,a4
    39d4:	00fa2023          	sw	a5,0(s4)
    39d8:	05400b13          	li	s6,84
    39dc:	007b5613          	srli	a2,s6,0x7
    39e0:	02000593          	li	a1,32
    39e4:	8552                	mv	a0,s4
    39e6:	529000ef          	jal	ra,470e <GPIO_WriteBit>
    39ea:	0001                	nop
    39ec:	0001                	nop
    39ee:	0001                	nop
    39f0:	04000593          	li	a1,64
    39f4:	8552                	mv	a0,s4
    39f6:	507000ef          	jal	ra,46fc <GPIO_SetBits>
    39fa:	0001                	nop
    39fc:	0001                	nop
    39fe:	0001                	nop
    3a00:	04000593          	li	a1,64
    3a04:	8552                	mv	a0,s4
    3a06:	0b06                	slli	s6,s6,0x1
    3a08:	1bfd                	addi	s7,s7,-1
    3a0a:	501000ef          	jal	ra,470a <GPIO_ResetBits>
    3a0e:	0ffb7b13          	zext.b	s6,s6
    3a12:	fc0b95e3          	bnez	s7,39dc <main+0x1460>
    3a16:	40011a37          	lui	s4,0x40011
    3a1a:	800a2783          	lw	a5,-2048(s4) # 40010800 <_eusrstack+0x2000b800>
    3a1e:	ff100b37          	lui	s6,0xff100
    3a22:	1b7d                	addi	s6,s6,-1 # ff0fffff <_eusrstack+0xdf0fafff>
    3a24:	0167f7b3          	and	a5,a5,s6
    3a28:	00800737          	lui	a4,0x800
    3a2c:	8fd9                	or	a5,a5,a4
    3a2e:	800a0a13          	addi	s4,s4,-2048
    3a32:	00fa2023          	sw	a5,0(s4)
    3a36:	0001                	nop
    3a38:	0001                	nop
    3a3a:	0001                	nop
    3a3c:	04000593          	li	a1,64
    3a40:	8552                	mv	a0,s4
    3a42:	4bb000ef          	jal	ra,46fc <GPIO_SetBits>
    3a46:	0001                	nop
    3a48:	0001                	nop
    3a4a:	0001                	nop
    3a4c:	02000593          	li	a1,32
    3a50:	8552                	mv	a0,s4
    3a52:	4a1000ef          	jal	ra,46f2 <GPIO_ReadInputDataBit>
    3a56:	8baa                	mv	s7,a0
    3a58:	04000593          	li	a1,64
    3a5c:	8552                	mv	a0,s4
    3a5e:	4ad000ef          	jal	ra,470a <GPIO_ResetBits>
    3a62:	0001                	nop
    3a64:	0001                	nop
    3a66:	0001                	nop
    3a68:	02000593          	li	a1,32
    3a6c:	8552                	mv	a0,s4
    3a6e:	48f000ef          	jal	ra,46fc <GPIO_SetBits>
    3a72:	0e0b9c63          	bnez	s7,3b6a <main+0x15ee>
    3a76:	01410c13          	addi	s8,sp,20
    3a7a:	40011bb7          	lui	s7,0x40011
    3a7e:	800ba703          	lw	a4,-2048(s7) # 40010800 <_eusrstack+0x2000b800>
    3a82:	003007b7          	lui	a5,0x300
    3a86:	000c4c83          	lbu	s9,0(s8)
    3a8a:	01677733          	and	a4,a4,s6
    3a8e:	8f5d                	or	a4,a4,a5
    3a90:	800b8a13          	addi	s4,s7,-2048
    3a94:	80eba023          	sw	a4,-2048(s7)
    3a98:	4da1                	li	s11,8
    3a9a:	007cd613          	srli	a2,s9,0x7
    3a9e:	02000593          	li	a1,32
    3aa2:	8552                	mv	a0,s4
    3aa4:	46b000ef          	jal	ra,470e <GPIO_WriteBit>
    3aa8:	0001                	nop
    3aaa:	0001                	nop
    3aac:	0001                	nop
    3aae:	04000593          	li	a1,64
    3ab2:	8552                	mv	a0,s4
    3ab4:	449000ef          	jal	ra,46fc <GPIO_SetBits>
    3ab8:	0001                	nop
    3aba:	0001                	nop
    3abc:	0001                	nop
    3abe:	04000593          	li	a1,64
    3ac2:	8552                	mv	a0,s4
    3ac4:	447000ef          	jal	ra,470a <GPIO_ResetBits>
    3ac8:	001c9793          	slli	a5,s9,0x1
    3acc:	1dfd                	addi	s11,s11,-1 # 2fffff <main.c.ab49d0c1+0x2f4997>
    3ace:	0ff7fc93          	zext.b	s9,a5
    3ad2:	fc0d94e3          	bnez	s11,3a9a <main+0x151e>
    3ad6:	800ba783          	lw	a5,-2048(s7)
    3ada:	00800737          	lui	a4,0x800
    3ade:	800b8a13          	addi	s4,s7,-2048
    3ae2:	0167f7b3          	and	a5,a5,s6
    3ae6:	8fd9                	or	a5,a5,a4
    3ae8:	80fba023          	sw	a5,-2048(s7)
    3aec:	0001                	nop
    3aee:	0001                	nop
    3af0:	0001                	nop
    3af2:	04000593          	li	a1,64
    3af6:	8552                	mv	a0,s4
    3af8:	405000ef          	jal	ra,46fc <GPIO_SetBits>
    3afc:	0001                	nop
    3afe:	0001                	nop
    3b00:	0001                	nop
    3b02:	02000593          	li	a1,32
    3b06:	8552                	mv	a0,s4
    3b08:	3eb000ef          	jal	ra,46f2 <GPIO_ReadInputDataBit>
    3b0c:	87aa                	mv	a5,a0
    3b0e:	04000593          	li	a1,64
    3b12:	8552                	mv	a0,s4
    3b14:	c63e                	sw	a5,12(sp)
    3b16:	3f5000ef          	jal	ra,470a <GPIO_ResetBits>
    3b1a:	0001                	nop
    3b1c:	0001                	nop
    3b1e:	0001                	nop
    3b20:	02000593          	li	a1,32
    3b24:	8552                	mv	a0,s4
    3b26:	3d7000ef          	jal	ra,46fc <GPIO_SetBits>
    3b2a:	47b2                	lw	a5,12(sp)
    3b2c:	ef9d                	bnez	a5,3b6a <main+0x15ee>
    3b2e:	0c05                	addi	s8,s8,1
    3b30:	f58997e3          	bne	s3,s8,3a7e <main+0x1502>
    3b34:	000a2783          	lw	a5,0(s4)
    3b38:	00300737          	lui	a4,0x300
    3b3c:	8552                	mv	a0,s4
    3b3e:	0167f7b3          	and	a5,a5,s6
    3b42:	8fd9                	or	a5,a5,a4
    3b44:	00fa2023          	sw	a5,0(s4)
    3b48:	02000593          	li	a1,32
    3b4c:	3bf000ef          	jal	ra,470a <GPIO_ResetBits>
    3b50:	04000593          	li	a1,64
    3b54:	8552                	mv	a0,s4
    3b56:	3a7000ef          	jal	ra,46fc <GPIO_SetBits>
    3b5a:	0001                	nop
    3b5c:	0001                	nop
    3b5e:	0001                	nop
    3b60:	02000593          	li	a1,32
    3b64:	8552                	mv	a0,s4
    3b66:	397000ef          	jal	ra,46fc <GPIO_SetBits>
    3b6a:	4585                	li	a1,1
    3b6c:	46400513          	li	a0,1124
    3b70:	b6ffd0ef          	jal	ra,16de <IIC_WriteRegI.isra.0>
    3b74:	60000593          	li	a1,1536
    3b78:	44000513          	li	a0,1088
    3b7c:	b63fd0ef          	jal	ra,16de <IIC_WriteRegI.isra.0>
    3b80:	010aa803          	lw	a6,16(s5)
    3b84:	014aa603          	lw	a2,20(s5)
    3b88:	018aa683          	lw	a3,24(s5)
    3b8c:	01caa703          	lw	a4,28(s5)
    3b90:	020aa783          	lw	a5,32(s5)
    3b94:	40011ab7          	lui	s5,0x40011
    3b98:	800a8513          	addi	a0,s5,-2048 # 40010800 <_eusrstack+0x2000b800>
    3b9c:	02000593          	li	a1,32
    3ba0:	da3e                	sw	a5,52(sp)
    3ba2:	800a8a13          	addi	s4,s5,-2048
    3ba6:	d242                	sw	a6,36(sp)
    3ba8:	d432                	sw	a2,40(sp)
    3baa:	d636                	sw	a3,44(sp)
    3bac:	d83a                	sw	a4,48(sp)
    3bae:	34f000ef          	jal	ra,46fc <GPIO_SetBits>
    3bb2:	04000593          	li	a1,64
    3bb6:	8552                	mv	a0,s4
    3bb8:	345000ef          	jal	ra,46fc <GPIO_SetBits>
    3bbc:	000a2783          	lw	a5,0(s4)
    3bc0:	ff100b37          	lui	s6,0xff100
    3bc4:	1b7d                	addi	s6,s6,-1 # ff0fffff <_eusrstack+0xdf0fafff>
    3bc6:	0167f7b3          	and	a5,a5,s6
    3bca:	00300c37          	lui	s8,0x300
    3bce:	0187e7b3          	or	a5,a5,s8
    3bd2:	00fa2023          	sw	a5,0(s4)
    3bd6:	0001                	nop
    3bd8:	0001                	nop
    3bda:	0001                	nop
    3bdc:	02000593          	li	a1,32
    3be0:	8552                	mv	a0,s4
    3be2:	329000ef          	jal	ra,470a <GPIO_ResetBits>
    3be6:	0001                	nop
    3be8:	0001                	nop
    3bea:	0001                	nop
    3bec:	04000593          	li	a1,64
    3bf0:	8552                	mv	a0,s4
    3bf2:	319000ef          	jal	ra,470a <GPIO_ResetBits>
    3bf6:	0001                	nop
    3bf8:	0001                	nop
    3bfa:	0001                	nop
    3bfc:	000a2783          	lw	a5,0(s4)
    3c00:	4ba1                	li	s7,8
    3c02:	0d000a93          	li	s5,208
    3c06:	0167f7b3          	and	a5,a5,s6
    3c0a:	0187e7b3          	or	a5,a5,s8
    3c0e:	00fa2023          	sw	a5,0(s4)
    3c12:	007ad613          	srli	a2,s5,0x7
    3c16:	02000593          	li	a1,32
    3c1a:	8552                	mv	a0,s4
    3c1c:	2f3000ef          	jal	ra,470e <GPIO_WriteBit>
    3c20:	0001                	nop
    3c22:	0001                	nop
    3c24:	0001                	nop
    3c26:	04000593          	li	a1,64
    3c2a:	8552                	mv	a0,s4
    3c2c:	2d1000ef          	jal	ra,46fc <GPIO_SetBits>
    3c30:	0001                	nop
    3c32:	0001                	nop
    3c34:	0001                	nop
    3c36:	04000593          	li	a1,64
    3c3a:	8552                	mv	a0,s4
    3c3c:	0a86                	slli	s5,s5,0x1
    3c3e:	1bfd                	addi	s7,s7,-1
    3c40:	2cb000ef          	jal	ra,470a <GPIO_ResetBits>
    3c44:	0ffafa93          	zext.b	s5,s5
    3c48:	fc0b95e3          	bnez	s7,3c12 <main+0x1696>
    3c4c:	40011a37          	lui	s4,0x40011
    3c50:	800a2783          	lw	a5,-2048(s4) # 40010800 <_eusrstack+0x2000b800>
    3c54:	ff100ab7          	lui	s5,0xff100
    3c58:	1afd                	addi	s5,s5,-1 # ff0fffff <_eusrstack+0xdf0fafff>
    3c5a:	0157f7b3          	and	a5,a5,s5
    3c5e:	00800737          	lui	a4,0x800
    3c62:	8fd9                	or	a5,a5,a4
    3c64:	800a0a13          	addi	s4,s4,-2048
    3c68:	00fa2023          	sw	a5,0(s4)
    3c6c:	0001                	nop
    3c6e:	0001                	nop
    3c70:	0001                	nop
    3c72:	04000593          	li	a1,64
    3c76:	8552                	mv	a0,s4
    3c78:	285000ef          	jal	ra,46fc <GPIO_SetBits>
    3c7c:	0001                	nop
    3c7e:	0001                	nop
    3c80:	0001                	nop
    3c82:	02000593          	li	a1,32
    3c86:	8552                	mv	a0,s4
    3c88:	26b000ef          	jal	ra,46f2 <GPIO_ReadInputDataBit>
    3c8c:	8b2a                	mv	s6,a0
    3c8e:	04000593          	li	a1,64
    3c92:	8552                	mv	a0,s4
    3c94:	277000ef          	jal	ra,470a <GPIO_ResetBits>
    3c98:	0001                	nop
    3c9a:	0001                	nop
    3c9c:	0001                	nop
    3c9e:	02000593          	li	a1,32
    3ca2:	8552                	mv	a0,s4
    3ca4:	259000ef          	jal	ra,46fc <GPIO_SetBits>
    3ca8:	240b1e63          	bnez	s6,3f04 <main+0x1988>
    3cac:	000a2783          	lw	a5,0(s4)
    3cb0:	00300737          	lui	a4,0x300
    3cb4:	4b21                	li	s6,8
    3cb6:	0157f7b3          	and	a5,a5,s5
    3cba:	8fd9                	or	a5,a5,a4
    3cbc:	00fa2023          	sw	a5,0(s4)
    3cc0:	4a99                	li	s5,6
    3cc2:	007ad613          	srli	a2,s5,0x7
    3cc6:	02000593          	li	a1,32
    3cca:	8552                	mv	a0,s4
    3ccc:	243000ef          	jal	ra,470e <GPIO_WriteBit>
    3cd0:	0001                	nop
    3cd2:	0001                	nop
    3cd4:	0001                	nop
    3cd6:	04000593          	li	a1,64
    3cda:	8552                	mv	a0,s4
    3cdc:	221000ef          	jal	ra,46fc <GPIO_SetBits>
    3ce0:	0001                	nop
    3ce2:	0001                	nop
    3ce4:	0001                	nop
    3ce6:	04000593          	li	a1,64
    3cea:	8552                	mv	a0,s4
    3cec:	0a86                	slli	s5,s5,0x1
    3cee:	1b7d                	addi	s6,s6,-1
    3cf0:	21b000ef          	jal	ra,470a <GPIO_ResetBits>
    3cf4:	0ffafa93          	zext.b	s5,s5
    3cf8:	fc0b15e3          	bnez	s6,3cc2 <main+0x1746>
    3cfc:	40011a37          	lui	s4,0x40011
    3d00:	800a2783          	lw	a5,-2048(s4) # 40010800 <_eusrstack+0x2000b800>
    3d04:	ff100ab7          	lui	s5,0xff100
    3d08:	1afd                	addi	s5,s5,-1 # ff0fffff <_eusrstack+0xdf0fafff>
    3d0a:	0157f7b3          	and	a5,a5,s5
    3d0e:	00800737          	lui	a4,0x800
    3d12:	8fd9                	or	a5,a5,a4
    3d14:	800a0a13          	addi	s4,s4,-2048
    3d18:	00fa2023          	sw	a5,0(s4)
    3d1c:	0001                	nop
    3d1e:	0001                	nop
    3d20:	0001                	nop
    3d22:	04000593          	li	a1,64
    3d26:	8552                	mv	a0,s4
    3d28:	1d5000ef          	jal	ra,46fc <GPIO_SetBits>
    3d2c:	0001                	nop
    3d2e:	0001                	nop
    3d30:	0001                	nop
    3d32:	02000593          	li	a1,32
    3d36:	8552                	mv	a0,s4
    3d38:	1bb000ef          	jal	ra,46f2 <GPIO_ReadInputDataBit>
    3d3c:	8b2a                	mv	s6,a0
    3d3e:	04000593          	li	a1,64
    3d42:	8552                	mv	a0,s4
    3d44:	1c7000ef          	jal	ra,470a <GPIO_ResetBits>
    3d48:	0001                	nop
    3d4a:	0001                	nop
    3d4c:	0001                	nop
    3d4e:	02000593          	li	a1,32
    3d52:	8552                	mv	a0,s4
    3d54:	1a9000ef          	jal	ra,46fc <GPIO_SetBits>
    3d58:	1a0b1663          	bnez	s6,3f04 <main+0x1988>
    3d5c:	000a2783          	lw	a5,0(s4)
    3d60:	00300737          	lui	a4,0x300
    3d64:	4b21                	li	s6,8
    3d66:	0157f7b3          	and	a5,a5,s5
    3d6a:	8fd9                	or	a5,a5,a4
    3d6c:	00fa2023          	sw	a5,0(s4)
    3d70:	04400a93          	li	s5,68
    3d74:	007ad613          	srli	a2,s5,0x7
    3d78:	02000593          	li	a1,32
    3d7c:	8552                	mv	a0,s4
    3d7e:	191000ef          	jal	ra,470e <GPIO_WriteBit>
    3d82:	0001                	nop
    3d84:	0001                	nop
    3d86:	0001                	nop
    3d88:	04000593          	li	a1,64
    3d8c:	8552                	mv	a0,s4
    3d8e:	16f000ef          	jal	ra,46fc <GPIO_SetBits>
    3d92:	0001                	nop
    3d94:	0001                	nop
    3d96:	0001                	nop
    3d98:	04000593          	li	a1,64
    3d9c:	8552                	mv	a0,s4
    3d9e:	0a86                	slli	s5,s5,0x1
    3da0:	1b7d                	addi	s6,s6,-1
    3da2:	169000ef          	jal	ra,470a <GPIO_ResetBits>
    3da6:	0ffafa93          	zext.b	s5,s5
    3daa:	fc0b15e3          	bnez	s6,3d74 <main+0x17f8>
    3dae:	40011a37          	lui	s4,0x40011
    3db2:	800a2783          	lw	a5,-2048(s4) # 40010800 <_eusrstack+0x2000b800>
    3db6:	ff100ab7          	lui	s5,0xff100
    3dba:	1afd                	addi	s5,s5,-1 # ff0fffff <_eusrstack+0xdf0fafff>
    3dbc:	0157f7b3          	and	a5,a5,s5
    3dc0:	00800737          	lui	a4,0x800
    3dc4:	8fd9                	or	a5,a5,a4
    3dc6:	800a0a13          	addi	s4,s4,-2048
    3dca:	00fa2023          	sw	a5,0(s4)
    3dce:	0001                	nop
    3dd0:	0001                	nop
    3dd2:	0001                	nop
    3dd4:	04000593          	li	a1,64
    3dd8:	8552                	mv	a0,s4
    3dda:	123000ef          	jal	ra,46fc <GPIO_SetBits>
    3dde:	0001                	nop
    3de0:	0001                	nop
    3de2:	0001                	nop
    3de4:	02000593          	li	a1,32
    3de8:	8552                	mv	a0,s4
    3dea:	109000ef          	jal	ra,46f2 <GPIO_ReadInputDataBit>
    3dee:	8b2a                	mv	s6,a0
    3df0:	04000593          	li	a1,64
    3df4:	8552                	mv	a0,s4
    3df6:	115000ef          	jal	ra,470a <GPIO_ResetBits>
    3dfa:	0001                	nop
    3dfc:	0001                	nop
    3dfe:	0001                	nop
    3e00:	02000593          	li	a1,32
    3e04:	8552                	mv	a0,s4
    3e06:	0f7000ef          	jal	ra,46fc <GPIO_SetBits>
    3e0a:	0e0b1d63          	bnez	s6,3f04 <main+0x1988>
    3e0e:	8bce                	mv	s7,s3
    3e10:	40011b37          	lui	s6,0x40011
    3e14:	00300cb7          	lui	s9,0x300
    3e18:	800b2703          	lw	a4,-2048(s6) # 40010800 <_eusrstack+0x2000b800>
    3e1c:	000bcd83          	lbu	s11,0(s7)
    3e20:	800b0a13          	addi	s4,s6,-2048
    3e24:	01577733          	and	a4,a4,s5
    3e28:	01976733          	or	a4,a4,s9
    3e2c:	80eb2023          	sw	a4,-2048(s6)
    3e30:	4c21                	li	s8,8
    3e32:	007dd613          	srli	a2,s11,0x7
    3e36:	02000593          	li	a1,32
    3e3a:	8552                	mv	a0,s4
    3e3c:	0d3000ef          	jal	ra,470e <GPIO_WriteBit>
    3e40:	0001                	nop
    3e42:	0001                	nop
    3e44:	0001                	nop
    3e46:	04000593          	li	a1,64
    3e4a:	8552                	mv	a0,s4
    3e4c:	0b1000ef          	jal	ra,46fc <GPIO_SetBits>
    3e50:	0001                	nop
    3e52:	0001                	nop
    3e54:	0001                	nop
    3e56:	04000593          	li	a1,64
    3e5a:	8552                	mv	a0,s4
    3e5c:	0af000ef          	jal	ra,470a <GPIO_ResetBits>
    3e60:	001d9793          	slli	a5,s11,0x1
    3e64:	1c7d                	addi	s8,s8,-1 # 2fffff <main.c.ab49d0c1+0x2f4997>
    3e66:	0ff7fd93          	zext.b	s11,a5
    3e6a:	fc0c14e3          	bnez	s8,3e32 <main+0x18b6>
    3e6e:	800b2783          	lw	a5,-2048(s6)
    3e72:	00800737          	lui	a4,0x800
    3e76:	800b0a13          	addi	s4,s6,-2048
    3e7a:	0157f7b3          	and	a5,a5,s5
    3e7e:	8fd9                	or	a5,a5,a4
    3e80:	80fb2023          	sw	a5,-2048(s6)
    3e84:	0001                	nop
    3e86:	0001                	nop
    3e88:	0001                	nop
    3e8a:	04000593          	li	a1,64
    3e8e:	8552                	mv	a0,s4
    3e90:	06d000ef          	jal	ra,46fc <GPIO_SetBits>
    3e94:	0001                	nop
    3e96:	0001                	nop
    3e98:	0001                	nop
    3e9a:	02000593          	li	a1,32
    3e9e:	8552                	mv	a0,s4
    3ea0:	053000ef          	jal	ra,46f2 <GPIO_ReadInputDataBit>
    3ea4:	87aa                	mv	a5,a0
    3ea6:	04000593          	li	a1,64
    3eaa:	8552                	mv	a0,s4
    3eac:	c63e                	sw	a5,12(sp)
    3eae:	05d000ef          	jal	ra,470a <GPIO_ResetBits>
    3eb2:	0001                	nop
    3eb4:	0001                	nop
    3eb6:	0001                	nop
    3eb8:	02000593          	li	a1,32
    3ebc:	8552                	mv	a0,s4
    3ebe:	03f000ef          	jal	ra,46fc <GPIO_SetBits>
    3ec2:	47b2                	lw	a5,12(sp)
    3ec4:	e3a1                	bnez	a5,3f04 <main+0x1988>
    3ec6:	0b85                	addi	s7,s7,1
    3ec8:	183c                	addi	a5,sp,56
    3eca:	f4fb97e3          	bne	s7,a5,3e18 <main+0x189c>
    3ece:	000a2783          	lw	a5,0(s4)
    3ed2:	00300737          	lui	a4,0x300
    3ed6:	8552                	mv	a0,s4
    3ed8:	0157f7b3          	and	a5,a5,s5
    3edc:	8fd9                	or	a5,a5,a4
    3ede:	00fa2023          	sw	a5,0(s4)
    3ee2:	02000593          	li	a1,32
    3ee6:	025000ef          	jal	ra,470a <GPIO_ResetBits>
    3eea:	04000593          	li	a1,64
    3eee:	8552                	mv	a0,s4
    3ef0:	00d000ef          	jal	ra,46fc <GPIO_SetBits>
    3ef4:	0001                	nop
    3ef6:	0001                	nop
    3ef8:	0001                	nop
    3efa:	02000593          	li	a1,32
    3efe:	8552                	mv	a0,s4
    3f00:	7fc000ef          	jal	ra,46fc <GPIO_SetBits>
    3f04:	033f05b7          	lui	a1,0x33f0
    3f08:	02058593          	addi	a1,a1,32 # 33f0020 <main.c.ab49d0c1+0x33e49b8>
    3f0c:	65800513          	li	a0,1624
    3f10:	fcefd0ef          	jal	ra,16de <IIC_WriteRegI.isra.0>
    3f14:	6519                	lui	a0,0x6
    3f16:	ac450513          	addi	a0,a0,-1340 # 5ac4 <memcpy+0x908>
    3f1a:	258010ef          	jal	ra,5172 <puts>
    3f1e:	6505                	lui	a0,0x1
    3f20:	f1300593          	li	a1,-237
    3f24:	a0050513          	addi	a0,a0,-1536 # a00 <IIC_ReadReg.constprop.2.isra.0+0x19e>
    3f28:	fb6fd0ef          	jal	ra,16de <IIC_WriteRegI.isra.0>
    3f2c:	6591                	lui	a1,0x4
    3f2e:	b9158593          	addi	a1,a1,-1135 # 3b91 <main+0x1615>
    3f32:	61000513          	li	a0,1552
    3f36:	fa8fd0ef          	jal	ra,16de <IIC_WriteRegI.isra.0>
    3f3a:	65a1                	lui	a1,0x8
    3f3c:	11858593          	addi	a1,a1,280 # 8118 <_data_lma+0x238c>
    3f40:	61400513          	li	a0,1556
    3f44:	f9afd0ef          	jal	ra,16de <IIC_WriteRegI.isra.0>
    3f48:	04100593          	li	a1,65
    3f4c:	60000513          	li	a0,1536
    3f50:	f8efd0ef          	jal	ra,16de <IIC_WriteRegI.isra.0>
    3f54:	04300593          	li	a1,67
    3f58:	60000513          	li	a0,1536
    3f5c:	f82fd0ef          	jal	ra,16de <IIC_WriteRegI.isra.0>
    3f60:	10300593          	li	a1,259
    3f64:	51000513          	li	a0,1296
    3f68:	f76fd0ef          	jal	ra,16de <IIC_WriteRegI.isra.0>
    3f6c:	4509                	li	a0,2
    3f6e:	3b9000ef          	jal	ra,4b26 <Delay_Ms>
    3f72:	85ce                	mv	a1,s3
    3f74:	50800513          	li	a0,1288
    3f78:	8ebfc0ef          	jal	ra,862 <IIC_ReadReg.constprop.2.isra.0>
    3f7c:	188c                	addi	a1,sp,112
    3f7e:	22000513          	li	a0,544
    3f82:	8e1fc0ef          	jal	ra,862 <IIC_ReadReg.constprop.2.isra.0>
    3f86:	5592                	lw	a1,36(sp)
    3f88:	6519                	lui	a0,0x6
    3f8a:	ae850513          	addi	a0,a0,-1304 # 5ae8 <memcpy+0x92c>
    3f8e:	1c0010ef          	jal	ra,514e <printf>
    3f92:	55c6                	lw	a1,112(sp)
    3f94:	6519                	lui	a0,0x6
    3f96:	afc50513          	addi	a0,a0,-1284 # 5afc <memcpy+0x940>
    3f9a:	1b4010ef          	jal	ra,514e <printf>
    3f9e:	451d                	li	a0,7
    3fa0:	ad1fd0ef          	jal	ra,1a70 <WS2812_SetColor>
    3fa4:	4a05                	li	s4,1
    3fa6:	a2ed                	j	4190 <main+0x1c14>
    3fa8:	40013ab7          	lui	s5,0x40013
    3fac:	4a05                	li	s4,1
    3fae:	4601                	li	a2,0
    3fb0:	c00a8513          	addi	a0,s5,-1024 # 40012c00 <_eusrstack+0x2000dc00>
    3fb4:	4585                	li	a1,1
    3fb6:	040102a3          	sb	zero,69(sp)
    3fba:	c682                	sw	zero,76(sp)
    3fbc:	c4d2                	sw	s4,72(sp)
    3fbe:	217000ef          	jal	ra,49d4 <TIM_ITConfig>
    3fc2:	6b95                	lui	s7,0x5
    3fc4:	6515                	lui	a0,0x5
    3fc6:	3d0b8593          	addi	a1,s7,976 # 53d0 <memcpy+0x214>
    3fca:	3d450513          	addi	a0,a0,980 # 53d4 <memcpy+0x218>
    3fce:	180010ef          	jal	ra,514e <printf>
    3fd2:	6585                	lui	a1,0x1
    3fd4:	c00b0513          	addi	a0,s6,-1024
    3fd8:	80058593          	addi	a1,a1,-2048 # 800 <__stack_size>
    3fdc:	4605                	li	a2,1
    3fde:	730000ef          	jal	ra,470e <GPIO_WriteBit>
    3fe2:	4605                	li	a2,1
    3fe4:	c00b0513          	addi	a0,s6,-1024
    3fe8:	6585                	lui	a1,0x1
    3fea:	724000ef          	jal	ra,470e <GPIO_WriteBit>
    3fee:	6515                	lui	a0,0x5
    3ff0:	3d0b8593          	addi	a1,s7,976
    3ff4:	3e850513          	addi	a0,a0,1000 # 53e8 <memcpy+0x22c>
    3ff8:	156010ef          	jal	ra,514e <printf>
    3ffc:	800b0513          	addi	a0,s6,-2048
    4000:	4605                	li	a2,1
    4002:	4589                	li	a1,2
    4004:	70a000ef          	jal	ra,470e <GPIO_WriteBit>
    4008:	4601                	li	a2,0
    400a:	c00a8513          	addi	a0,s5,-1024
    400e:	4585                	li	a1,1
    4010:	8001ac23          	sw	zero,-2024(gp) # 20000038 <TIM1_CNT>
    4014:	1c1000ef          	jal	ra,49d4 <TIM_ITConfig>
    4018:	c00a8513          	addi	a0,s5,-1024
    401c:	4581                	li	a1,0
    401e:	1c9000ef          	jal	ra,49e6 <TIM_SetCounter>
    4022:	6515                	lui	a0,0x5
    4024:	3fc50513          	addi	a0,a0,1020 # 53fc <memcpy+0x240>
    4028:	de52                	sw	s4,60(sp)
    402a:	c0d2                	sw	s4,64(sp)
    402c:	04011223          	sh	zero,68(sp)
    4030:	04010323          	sb	zero,70(sp)
    4034:	c682                	sw	zero,76(sp)
    4036:	c4d2                	sw	s4,72(sp)
    4038:	c882                	sw	zero,80(sp)
    403a:	d082                	sw	zero,96(sp)
    403c:	ce82                	sw	zero,92(sp)
    403e:	d482                	sw	zero,104(sp)
    4040:	06011223          	sh	zero,100(sp)
    4044:	06010623          	sb	zero,108(sp)
    4048:	12a010ef          	jal	ra,5172 <puts>
    404c:	b1bfe06f          	j	2b66 <main+0x5ea>
    4050:	6519                	lui	a0,0x6
    4052:	93450513          	addi	a0,a0,-1740 # 5934 <memcpy+0x778>
    4056:	11c010ef          	jal	ra,5172 <puts>
    405a:	4795                	li	a5,5
    405c:	c8be                	sw	a5,80(sp)
    405e:	b09fe06f          	j	2b66 <main+0x5ea>
    4062:	6519                	lui	a0,0x6
    4064:	81c50513          	addi	a0,a0,-2020 # 581c <memcpy+0x660>
    4068:	10a010ef          	jal	ra,5172 <puts>
    406c:	c882                	sw	zero,80(sp)
    406e:	af9fe06f          	j	2b66 <main+0x5ea>
    4072:	6515                	lui	a0,0x5
    4074:	76850513          	addi	a0,a0,1896 # 5768 <memcpy+0x5ac>
    4078:	0fa010ef          	jal	ra,5172 <puts>
    407c:	5a76                	lw	s4,124(sp)
    407e:	6515                	lui	a0,0x5
    4080:	77450513          	addi	a0,a0,1908 # 5774 <memcpy+0x5b8>
    4084:	01ca5593          	srli	a1,s4,0x1c
    4088:	0c6010ef          	jal	ra,514e <printf>
    408c:	018a5593          	srli	a1,s4,0x18
    4090:	6515                	lui	a0,0x5
    4092:	89bd                	andi	a1,a1,15
    4094:	78850513          	addi	a0,a0,1928 # 5788 <memcpy+0x5cc>
    4098:	0b6010ef          	jal	ra,514e <printf>
    409c:	003a5593          	srli	a1,s4,0x3
    40a0:	6515                	lui	a0,0x5
    40a2:	8985                	andi	a1,a1,1
    40a4:	79c50513          	addi	a0,a0,1948 # 579c <memcpy+0x5e0>
    40a8:	0a6010ef          	jal	ra,514e <printf>
    40ac:	004a5593          	srli	a1,s4,0x4
    40b0:	6515                	lui	a0,0x5
    40b2:	8985                	andi	a1,a1,1
    40b4:	7ac50513          	addi	a0,a0,1964 # 57ac <memcpy+0x5f0>
    40b8:	096010ef          	jal	ra,514e <printf>
    40bc:	005a5593          	srli	a1,s4,0x5
    40c0:	6515                	lui	a0,0x5
    40c2:	899d                	andi	a1,a1,7
    40c4:	7bc50513          	addi	a0,a0,1980 # 57bc <memcpy+0x600>
    40c8:	086010ef          	jal	ra,514e <printf>
    40cc:	6515                	lui	a0,0x5
    40ce:	007a7593          	andi	a1,s4,7
    40d2:	7d050513          	addi	a0,a0,2000 # 57d0 <memcpy+0x614>
    40d6:	078010ef          	jal	ra,514e <printf>
    40da:	008a5593          	srli	a1,s4,0x8
    40de:	6515                	lui	a0,0x5
    40e0:	89bd                	andi	a1,a1,15
    40e2:	7e050513          	addi	a0,a0,2016 # 57e0 <memcpy+0x624>
    40e6:	010a7a13          	andi	s4,s4,16
    40ea:	064010ef          	jal	ra,514e <printf>
    40ee:	000a0463          	beqz	s4,40f6 <main+0x1b7a>
    40f2:	e83fe06f          	j	2f74 <main+0x9f8>
    40f6:	6595                	lui	a1,0x5
    40f8:	6515                	lui	a0,0x5
    40fa:	3d058593          	addi	a1,a1,976 # 53d0 <memcpy+0x214>
    40fe:	3d450513          	addi	a0,a0,980 # 53d4 <memcpy+0x218>
    4102:	04c010ef          	jal	ra,514e <printf>
    4106:	40011a37          	lui	s4,0x40011
    410a:	6585                	lui	a1,0x1
    410c:	c00a0513          	addi	a0,s4,-1024 # 40010c00 <_eusrstack+0x2000bc00>
    4110:	80058593          	addi	a1,a1,-2048 # 800 <__stack_size>
    4114:	4605                	li	a2,1
    4116:	5f8000ef          	jal	ra,470e <GPIO_WriteBit>
    411a:	4605                	li	a2,1
    411c:	6585                	lui	a1,0x1
    411e:	c00a0513          	addi	a0,s4,-1024
    4122:	5ec000ef          	jal	ra,470e <GPIO_WriteBit>
    4126:	e4ffe06f          	j	2f74 <main+0x9f8>
    412a:	6515                	lui	a0,0x5
    412c:	7f450513          	addi	a0,a0,2036 # 57f4 <memcpy+0x638>
    4130:	042010ef          	jal	ra,5172 <puts>
    4134:	c882                	sw	zero,80(sp)
    4136:	a31fe06f          	j	2b66 <main+0x5ea>
    413a:	4a05                	li	s4,1
    413c:	6519                	lui	a0,0x6
    413e:	85d2                	mv	a1,s4
    4140:	8b050513          	addi	a0,a0,-1872 # 58b0 <memcpy+0x6f4>
    4144:	00a010ef          	jal	ra,514e <printf>
    4148:	010ad613          	srli	a2,s5,0x10
    414c:	008ad693          	srli	a3,s5,0x8
    4150:	0ff67613          	zext.b	a2,a2
    4154:	006ad793          	srli	a5,s5,0x6
    4158:	8b85                	andi	a5,a5,1
    415a:	0622                	slli	a2,a2,0x8
    415c:	0ff6f693          	zext.b	a3,a3
    4160:	001b0713          	addi	a4,s6,1
    4164:	8ed1                	or	a3,a3,a2
    4166:	06f106a3          	sb	a5,109(sp)
    416a:	4791                	li	a5,4
    416c:	06e10223          	sb	a4,100(sp)
    4170:	06d11323          	sh	a3,102(sp)
    4174:	c8be                	sw	a5,80(sp)
    4176:	9f1fe06f          	j	2b66 <main+0x5ea>
    417a:	6519                	lui	a0,0x6
    417c:	9e450513          	addi	a0,a0,-1564 # 59e4 <memcpy+0x828>
    4180:	7f3000ef          	jal	ra,5172 <puts>
    4184:	00070537          	lui	a0,0x70
    4188:	70050513          	addi	a0,a0,1792 # 70700 <main.c.ab49d0c1+0x65098>
    418c:	8e5fd0ef          	jal	ra,1a70 <WS2812_SetColor>
    4190:	07410623          	sb	s4,108(sp)
    4194:	400276b7          	lui	a3,0x40027
    4198:	229e                	lhu	a5,0(a3)
    419a:	7769                	lui	a4,0xffffa
    419c:	177d                	addi	a4,a4,-1 # ffff9fff <_eusrstack+0xdfff4fff>
    419e:	8ff9                	and	a5,a5,a4
    41a0:	a29e                	sh	a5,0(a3)
    41a2:	00020737          	lui	a4,0x20
    41a6:	e000e7b7          	lui	a5,0xe000e
    41aa:	18e7a223          	sw	a4,388(a5) # e000e184 <_eusrstack+0xc0009184>
    41ae:	ce82                	sw	zero,92(sp)
    41b0:	c882                	sw	zero,80(sp)
    41b2:	9b5fe06f          	j	2b66 <main+0x5ea>
    41b6:	6595                	lui	a1,0x5
    41b8:	53058593          	addi	a1,a1,1328 # 5530 <memcpy+0x374>
    41bc:	bb1fe06f          	j	2d6c <main+0x7f0>
    41c0:	4b09                	li	s6,2
    41c2:	4a0d                	li	s4,3
    41c4:	bfa5                	j	413c <main+0x1bc0>
    41c6:	6519                	lui	a0,0x6
    41c8:	84050513          	addi	a0,a0,-1984 # 5840 <memcpy+0x684>
    41cc:	7a7000ef          	jal	ra,5172 <puts>
    41d0:	c882                	sw	zero,80(sp)
    41d2:	995fe06f          	j	2b66 <main+0x5ea>
    41d6:	6519                	lui	a0,0x6
    41d8:	95050513          	addi	a0,a0,-1712 # 5950 <memcpy+0x794>
    41dc:	797000ef          	jal	ra,5172 <puts>
    41e0:	e7bfe06f          	j	305a <main+0xade>
    41e4:	4b05                	li	s6,1
    41e6:	4a09                	li	s4,2
    41e8:	bf91                	j	413c <main+0x1bc0>
    41ea:	6519                	lui	a0,0x6
    41ec:	aa050513          	addi	a0,a0,-1376 # 5aa0 <memcpy+0x8e4>
    41f0:	783000ef          	jal	ra,5172 <puts>
    41f4:	de4ff06f          	j	37d8 <main+0x125c>
    41f8:	6515                	lui	a0,0x5
    41fa:	27900593          	li	a1,633
    41fe:	42850513          	addi	a0,a0,1064 # 5428 <memcpy+0x26c>
    4202:	808fc0ef          	jal	ra,20a <__assert>
    4206:	6519                	lui	a0,0x6
    4208:	5e700593          	li	a1,1511
    420c:	b1050513          	addi	a0,a0,-1264 # 5b10 <memcpy+0x954>
    4210:	ffbfb0ef          	jal	ra,20a <__assert>
    4214:	8522                	mv	a0,s0
    4216:	b05fd0ef          	jal	ra,1d1a <PD_Send_Retry_Rst.part.0>
    421a:	e119                	bnez	a0,4220 <main+0x1ca4>
    421c:	da1fe06f          	j	2fbc <main+0xa40>
    4220:	e05fe06f          	j	3024 <main+0xaa8>
    4224:	6519                	lui	a0,0x6
    4226:	3c200593          	li	a1,962
    422a:	8e850513          	addi	a0,a0,-1816 # 58e8 <memcpy+0x72c>
    422e:	fddfb0ef          	jal	ra,20a <__assert>
    4232:	4b11                	li	s6,4
    4234:	4a15                	li	s4,5
    4236:	b719                	j	413c <main+0x1bc0>
    4238:	4b0d                	li	s6,3
    423a:	4a11                	li	s4,4
    423c:	b701                	j	413c <main+0x1bc0>

0000423e <SystemInit>:
    423e:	400217b7          	lui	a5,0x40021
    4242:	4398                	lw	a4,0(a5)
    4244:	f90006b7          	lui	a3,0xf9000
    4248:	f5f68693          	addi	a3,a3,-161 # f8ffff5f <_eusrstack+0xd8ffaf5f>
    424c:	00176713          	ori	a4,a4,1
    4250:	c398                	sw	a4,0(a5)
    4252:	43d8                	lw	a4,4(a5)
    4254:	05076713          	ori	a4,a4,80
    4258:	c3d8                	sw	a4,4(a5)
    425a:	43d8                	lw	a4,4(a5)
    425c:	8f75                	and	a4,a4,a3
    425e:	c3d8                	sw	a4,4(a5)
    4260:	40022737          	lui	a4,0x40022
    4264:	4314                	lw	a3,0(a4)
    4266:	9af1                	andi	a3,a3,-4
    4268:	c314                	sw	a3,0(a4)
    426a:	4314                	lw	a3,0(a4)
    426c:	0026e693          	ori	a3,a3,2
    4270:	c314                	sw	a3,0(a4)
    4272:	43d4                	lw	a3,4(a5)
    4274:	f0f6f693          	andi	a3,a3,-241
    4278:	c3d4                	sw	a3,4(a5)
    427a:	43d4                	lw	a3,4(a5)
    427c:	0106e693          	ori	a3,a3,16
    4280:	c3d4                	sw	a3,4(a5)
    4282:	4785                	li	a5,1
    4284:	c31c                	sw	a5,0(a4)
    4286:	8082                	ret

00004288 <SystemCoreClockUpdate>:
    4288:	400216b7          	lui	a3,0x40021
    428c:	42dc                	lw	a5,4(a3)
    428e:	8391                	srli	a5,a5,0x4
    4290:	00f7f713          	andi	a4,a5,15
    4294:	200007b7          	lui	a5,0x20000
    4298:	00078793          	mv	a5,a5
    429c:	97ba                	add	a5,a5,a4
    429e:	239c                	lbu	a5,0(a5)
    42a0:	42d4                	lw	a3,4(a3)
    42a2:	02dc7737          	lui	a4,0x2dc7
    42a6:	0ff7f793          	zext.b	a5,a5
    42aa:	c0070713          	addi	a4,a4,-1024 # 2dc6c00 <main.c.ab49d0c1+0x2dbb598>
    42ae:	0806f693          	andi	a3,a3,128
    42b2:	00f75633          	srl	a2,a4,a5
    42b6:	e299                	bnez	a3,42bc <SystemCoreClockUpdate+0x34>
    42b8:	02f75633          	divu	a2,a4,a5
    42bc:	200007b7          	lui	a5,0x20000
    42c0:	02c7a023          	sw	a2,32(a5) # 20000020 <SystemCoreClock>
    42c4:	8082                	ret

000042c6 <ADC1_IRQHandler>:
    42c6:	a001                	j	42c6 <ADC1_IRQHandler>

000042c8 <handle_reset>:
    42c8:	1fffc197          	auipc	gp,0x1fffc
    42cc:	55818193          	addi	gp,gp,1368 # 20000820 <__global_pointer$>
    42d0:	20001117          	auipc	sp,0x20001
    42d4:	d3010113          	addi	sp,sp,-720 # 20005000 <_eusrstack>
    42d8:	00002517          	auipc	a0,0x2
    42dc:	ab450513          	addi	a0,a0,-1356 # 5d8c <_data_lma>
    42e0:	1fffc597          	auipc	a1,0x1fffc
    42e4:	d2058593          	addi	a1,a1,-736 # 20000000 <AHBPrescTable>
    42e8:	81418613          	addi	a2,gp,-2028 # 20000034 <USBPD_FSM>
    42ec:	00c5fa63          	bgeu	a1,a2,4300 <handle_reset+0x38>
    42f0:	00052283          	lw	t0,0(a0)
    42f4:	0055a023          	sw	t0,0(a1)
    42f8:	0511                	addi	a0,a0,4
    42fa:	0591                	addi	a1,a1,4
    42fc:	fec5eae3          	bltu	a1,a2,42f0 <handle_reset+0x28>
    4300:	81418513          	addi	a0,gp,-2028 # 20000034 <USBPD_FSM>
    4304:	86c18593          	addi	a1,gp,-1940 # 2000008c <_ebss>
    4308:	00b57763          	bgeu	a0,a1,4316 <handle_reset+0x4e>
    430c:	00052023          	sw	zero,0(a0)
    4310:	0511                	addi	a0,a0,4
    4312:	feb56de3          	bltu	a0,a1,430c <handle_reset+0x44>
    4316:	42fd                	li	t0,31
    4318:	bc029073          	csrw	0xbc0,t0
    431c:	428d                	li	t0,3
    431e:	80429073          	csrw	0x804,t0
    4322:	08800293          	li	t0,136
    4326:	30029073          	csrw	mstatus,t0
    432a:	ffffc297          	auipc	t0,0xffffc
    432e:	cda28293          	addi	t0,t0,-806 # 4 <_einit>
    4332:	0032e293          	ori	t0,t0,3
    4336:	30529073          	csrw	mtvec,t0
    433a:	f05ff0ef          	jal	ra,423e <SystemInit>
    433e:	ffffe297          	auipc	t0,0xffffe
    4342:	23e28293          	addi	t0,t0,574 # 257c <main>
    4346:	34129073          	csrw	mepc,t0
    434a:	30200073          	mret

0000434e <ADC_DeInit>:
    434e:	400127b7          	lui	a5,0x40012
    4352:	40078793          	addi	a5,a5,1024 # 40012400 <_eusrstack+0x2000d400>
    4356:	00f51e63          	bne	a0,a5,4372 <ADC_DeInit+0x24>
    435a:	dd7fb2ef          	jal	t0,130 <__riscv_save_0>
    435e:	4585                	li	a1,1
    4360:	20000513          	li	a0,512
    4364:	23d5                	jal	4948 <RCC_APB2PeriphResetCmd>
    4366:	4581                	li	a1,0
    4368:	20000513          	li	a0,512
    436c:	2bf1                	jal	4948 <RCC_APB2PeriphResetCmd>
    436e:	de7fb06f          	j	154 <__riscv_restore_0>
    4372:	8082                	ret

00004374 <ADC_Init>:
    4374:	415c                	lw	a5,4(a0)
    4376:	e0f10737          	lui	a4,0xe0f10
    437a:	eff70713          	addi	a4,a4,-257 # e0f0feff <_eusrstack+0xc0f0aeff>
    437e:	4d94                	lw	a3,24(a1)
    4380:	8f7d                	and	a4,a4,a5
    4382:	419c                	lw	a5,0(a1)
    4384:	8fd5                	or	a5,a5,a3
    4386:	4dd4                	lw	a3,28(a1)
    4388:	8fd5                	or	a5,a5,a3
    438a:	41d4                	lw	a3,4(a1)
    438c:	06a2                	slli	a3,a3,0x8
    438e:	8fd5                	or	a5,a5,a3
    4390:	8fd9                	or	a5,a5,a4
    4392:	c15c                	sw	a5,4(a0)
    4394:	451c                	lw	a5,8(a0)
    4396:	fff1f737          	lui	a4,0xfff1f
    439a:	7fd70713          	addi	a4,a4,2045 # fff1f7fd <_eusrstack+0xdff1a7fd>
    439e:	45d4                	lw	a3,12(a1)
    43a0:	8f7d                	and	a4,a4,a5
    43a2:	499c                	lw	a5,16(a1)
    43a4:	8fd5                	or	a5,a5,a3
    43a6:	4594                	lw	a3,8(a1)
    43a8:	0686                	slli	a3,a3,0x1
    43aa:	8fd5                	or	a5,a5,a3
    43ac:	8fd9                	or	a5,a5,a4
    43ae:	c51c                	sw	a5,8(a0)
    43b0:	555c                	lw	a5,44(a0)
    43b2:	ff100737          	lui	a4,0xff100
    43b6:	177d                	addi	a4,a4,-1 # ff0fffff <_eusrstack+0xdf0fafff>
    43b8:	8f7d                	and	a4,a4,a5
    43ba:	29dc                	lbu	a5,20(a1)
    43bc:	17fd                	addi	a5,a5,-1
    43be:	0ff7f793          	zext.b	a5,a5
    43c2:	07d2                	slli	a5,a5,0x14
    43c4:	8fd9                	or	a5,a5,a4
    43c6:	d55c                	sw	a5,44(a0)
    43c8:	8082                	ret

000043ca <ADC_Cmd>:
    43ca:	451c                	lw	a5,8(a0)
    43cc:	c589                	beqz	a1,43d6 <ADC_Cmd+0xc>
    43ce:	0017e793          	ori	a5,a5,1
    43d2:	c51c                	sw	a5,8(a0)
    43d4:	8082                	ret
    43d6:	9bf9                	andi	a5,a5,-2
    43d8:	bfed                	j	43d2 <ADC_Cmd+0x8>

000043da <ADC_SoftwareStartConvCmd>:
    43da:	451c                	lw	a5,8(a0)
    43dc:	c591                	beqz	a1,43e8 <ADC_SoftwareStartConvCmd+0xe>
    43de:	00500737          	lui	a4,0x500
    43e2:	8fd9                	or	a5,a5,a4
    43e4:	c51c                	sw	a5,8(a0)
    43e6:	8082                	ret
    43e8:	ffb00737          	lui	a4,0xffb00
    43ec:	177d                	addi	a4,a4,-1 # ffafffff <_eusrstack+0xdfafafff>
    43ee:	8ff9                	and	a5,a5,a4
    43f0:	bfd5                	j	43e4 <ADC_SoftwareStartConvCmd+0xa>

000043f2 <ADC_RegularChannelConfig>:
    43f2:	47a5                	li	a5,9
    43f4:	04b7f763          	bgeu	a5,a1,4442 <ADC_RegularChannelConfig+0x50>
    43f8:	478d                	li	a5,3
    43fa:	ff658713          	addi	a4,a1,-10
    43fe:	02f70733          	mul	a4,a4,a5
    4402:	00c52803          	lw	a6,12(a0)
    4406:	479d                	li	a5,7
    4408:	00e797b3          	sll	a5,a5,a4
    440c:	fff7c793          	not	a5,a5
    4410:	0107f7b3          	and	a5,a5,a6
    4414:	00e696b3          	sll	a3,a3,a4
    4418:	8edd                	or	a3,a3,a5
    441a:	c554                	sw	a3,12(a0)
    441c:	4799                	li	a5,6
    441e:	04c7e363          	bltu	a5,a2,4464 <ADC_RegularChannelConfig+0x72>
    4422:	4795                	li	a5,5
    4424:	167d                	addi	a2,a2,-1
    4426:	02f60633          	mul	a2,a2,a5
    442a:	5958                	lw	a4,52(a0)
    442c:	47fd                	li	a5,31
    442e:	00c797b3          	sll	a5,a5,a2
    4432:	fff7c793          	not	a5,a5
    4436:	8ff9                	and	a5,a5,a4
    4438:	00c59633          	sll	a2,a1,a2
    443c:	8e5d                	or	a2,a2,a5
    443e:	d950                	sw	a2,52(a0)
    4440:	8082                	ret
    4442:	470d                	li	a4,3
    4444:	02e58733          	mul	a4,a1,a4
    4448:	01052803          	lw	a6,16(a0)
    444c:	479d                	li	a5,7
    444e:	00e797b3          	sll	a5,a5,a4
    4452:	fff7c793          	not	a5,a5
    4456:	0107f7b3          	and	a5,a5,a6
    445a:	00e696b3          	sll	a3,a3,a4
    445e:	8edd                	or	a3,a3,a5
    4460:	c914                	sw	a3,16(a0)
    4462:	bf6d                	j	441c <ADC_RegularChannelConfig+0x2a>
    4464:	47b1                	li	a5,12
    4466:	02c7e263          	bltu	a5,a2,448a <ADC_RegularChannelConfig+0x98>
    446a:	4795                	li	a5,5
    446c:	1665                	addi	a2,a2,-7
    446e:	02f60633          	mul	a2,a2,a5
    4472:	5918                	lw	a4,48(a0)
    4474:	47fd                	li	a5,31
    4476:	00c797b3          	sll	a5,a5,a2
    447a:	fff7c793          	not	a5,a5
    447e:	8ff9                	and	a5,a5,a4
    4480:	00c59633          	sll	a2,a1,a2
    4484:	8e5d                	or	a2,a2,a5
    4486:	d910                	sw	a2,48(a0)
    4488:	8082                	ret
    448a:	4795                	li	a5,5
    448c:	164d                	addi	a2,a2,-13
    448e:	02f60633          	mul	a2,a2,a5
    4492:	5558                	lw	a4,44(a0)
    4494:	47fd                	li	a5,31
    4496:	00c797b3          	sll	a5,a5,a2
    449a:	fff7c793          	not	a5,a5
    449e:	8ff9                	and	a5,a5,a4
    44a0:	00c595b3          	sll	a1,a1,a2
    44a4:	8ddd                	or	a1,a1,a5
    44a6:	d54c                	sw	a1,44(a0)
    44a8:	8082                	ret

000044aa <ADC_GetConversionValue>:
    44aa:	4568                	lw	a0,76(a0)
    44ac:	0542                	slli	a0,a0,0x10
    44ae:	8141                	srli	a0,a0,0x10
    44b0:	8082                	ret

000044b2 <ADC_GetFlagStatus>:
    44b2:	4108                	lw	a0,0(a0)
    44b4:	8d6d                	and	a0,a0,a1
    44b6:	00a03533          	snez	a0,a0
    44ba:	8082                	ret

000044bc <ADC_CLKConfig>:
    44bc:	493c                	lw	a5,80(a0)
    44be:	e007f793          	andi	a5,a5,-512
    44c2:	8ddd                	or	a1,a1,a5
    44c4:	c92c                	sw	a1,80(a0)
    44c6:	8082                	ret

000044c8 <DBGMCU_GetCHIPID>:
    44c8:	1ffff7b7          	lui	a5,0x1ffff
    44cc:	7047a503          	lw	a0,1796(a5) # 1ffff704 <main.c.ab49d0c1+0x1fff409c>
    44d0:	8082                	ret

000044d2 <EXTI_Init>:
    44d2:	4158                	lw	a4,4(a0)
    44d4:	00052803          	lw	a6,0(a0)
    44d8:	454c                	lw	a1,12(a0)
    44da:	40010637          	lui	a2,0x40010
    44de:	40060793          	addi	a5,a2,1024 # 40010400 <_eusrstack+0x2000b400>
    44e2:	973e                	add	a4,a4,a5
    44e4:	fff84693          	not	a3,a6
    44e8:	c5b1                	beqz	a1,4534 <EXTI_Init+0x62>
    44ea:	40062583          	lw	a1,1024(a2)
    44ee:	8df5                	and	a1,a1,a3
    44f0:	40b62023          	sw	a1,1024(a2)
    44f4:	43d0                	lw	a2,4(a5)
    44f6:	8ef1                	and	a3,a3,a2
    44f8:	c3d4                	sw	a3,4(a5)
    44fa:	4314                	lw	a3,0(a4)
    44fc:	0106e6b3          	or	a3,a3,a6
    4500:	c314                	sw	a3,0(a4)
    4502:	4118                	lw	a4,0(a0)
    4504:	4790                	lw	a2,8(a5)
    4506:	fff74693          	not	a3,a4
    450a:	8e75                	and	a2,a2,a3
    450c:	c790                	sw	a2,8(a5)
    450e:	47d0                	lw	a2,12(a5)
    4510:	8ef1                	and	a3,a3,a2
    4512:	c7d4                	sw	a3,12(a5)
    4514:	4514                	lw	a3,8(a0)
    4516:	4641                	li	a2,16
    4518:	00c69963          	bne	a3,a2,452a <EXTI_Init+0x58>
    451c:	4794                	lw	a3,8(a5)
    451e:	8ed9                	or	a3,a3,a4
    4520:	c794                	sw	a3,8(a5)
    4522:	47d4                	lw	a3,12(a5)
    4524:	8f55                	or	a4,a4,a3
    4526:	c7d8                	sw	a4,12(a5)
    4528:	8082                	ret
    452a:	97b6                	add	a5,a5,a3
    452c:	4394                	lw	a3,0(a5)
    452e:	8f55                	or	a4,a4,a3
    4530:	c398                	sw	a4,0(a5)
    4532:	8082                	ret
    4534:	431c                	lw	a5,0(a4)
    4536:	8ff5                	and	a5,a5,a3
    4538:	c31c                	sw	a5,0(a4)
    453a:	8082                	ret

0000453c <EXTI_GetITStatus>:
    453c:	400107b7          	lui	a5,0x40010
    4540:	40078713          	addi	a4,a5,1024 # 40010400 <_eusrstack+0x2000b400>
    4544:	4007a783          	lw	a5,1024(a5)
    4548:	4b58                	lw	a4,20(a4)
    454a:	8f69                	and	a4,a4,a0
    454c:	c709                	beqz	a4,4556 <EXTI_GetITStatus+0x1a>
    454e:	8d7d                	and	a0,a0,a5
    4550:	00a03533          	snez	a0,a0
    4554:	8082                	ret
    4556:	4501                	li	a0,0
    4558:	8082                	ret

0000455a <EXTI_ClearITPendingBit>:
    455a:	400107b7          	lui	a5,0x40010
    455e:	40a7aa23          	sw	a0,1044(a5) # 40010414 <_eusrstack+0x2000b414>
    4562:	8082                	ret

00004564 <GPIO_Init>:
    4564:	4598                	lw	a4,8(a1)
    4566:	01077793          	andi	a5,a4,16
    456a:	00f77813          	andi	a6,a4,15
    456e:	c781                	beqz	a5,4576 <GPIO_Init+0x12>
    4570:	41dc                	lw	a5,4(a1)
    4572:	00f86833          	or	a6,a6,a5
    4576:	4194                	lw	a3,0(a1)
    4578:	4781                	li	a5,0
    457a:	0ff6f613          	zext.b	a2,a3
    457e:	c239                	beqz	a2,45c4 <GPIO_Init+0x60>
    4580:	411c                	lw	a5,0(a0)
    4582:	4601                	li	a2,0
    4584:	4e85                	li	t4,1
    4586:	4f3d                	li	t5,15
    4588:	02800f93          	li	t6,40
    458c:	04800293          	li	t0,72
    4590:	4e21                	li	t3,8
    4592:	00ce98b3          	sll	a7,t4,a2
    4596:	0116f5b3          	and	a1,a3,a7
    459a:	02b89163          	bne	a7,a1,45bc <GPIO_Init+0x58>
    459e:	00261313          	slli	t1,a2,0x2
    45a2:	006f15b3          	sll	a1,t5,t1
    45a6:	fff5c593          	not	a1,a1
    45aa:	8fed                	and	a5,a5,a1
    45ac:	00681333          	sll	t1,a6,t1
    45b0:	00f367b3          	or	a5,t1,a5
    45b4:	0ff71563          	bne	a4,t6,469e <GPIO_Init+0x13a>
    45b8:	01152a23          	sw	a7,20(a0)
    45bc:	0605                	addi	a2,a2,1
    45be:	fdc61ae3          	bne	a2,t3,4592 <GPIO_Init+0x2e>
    45c2:	c11c                	sw	a5,0(a0)
    45c4:	6641                	lui	a2,0x10
    45c6:	f0060613          	addi	a2,a2,-256 # ff00 <main.c.ab49d0c1+0x4898>
    45ca:	8e75                	and	a2,a2,a3
    45cc:	c249                	beqz	a2,464e <GPIO_Init+0xea>
    45ce:	1ffff637          	lui	a2,0x1ffff
    45d2:	70462603          	lw	a2,1796(a2) # 1ffff704 <main.c.ab49d0c1+0x1fff409c>
    45d6:	0f067613          	andi	a2,a2,240
    45da:	e27d                	bnez	a2,46c0 <GPIO_Init+0x15c>
    45dc:	40011637          	lui	a2,0x40011
    45e0:	80060593          	addi	a1,a2,-2048 # 40010800 <_eusrstack+0x2000b800>
    45e4:	0cb51263          	bne	a0,a1,46a8 <GPIO_Init+0x144>
    45e8:	8041a783          	lw	a5,-2044(gp) # 20000024 <CFGHR_tmpA>
    45ec:	45a1                	li	a1,8
    45ee:	4e85                	li	t4,1
    45f0:	4f3d                	li	t5,15
    45f2:	02800f93          	li	t6,40
    45f6:	04800293          	li	t0,72
    45fa:	4e41                	li	t3,16
    45fc:	00be9333          	sll	t1,t4,a1
    4600:	0066f633          	and	a2,a3,t1
    4604:	02c31263          	bne	t1,a2,4628 <GPIO_Init+0xc4>
    4608:	00259613          	slli	a2,a1,0x2
    460c:	1601                	addi	a2,a2,-32
    460e:	00cf18b3          	sll	a7,t5,a2
    4612:	fff8c893          	not	a7,a7
    4616:	00f8f7b3          	and	a5,a7,a5
    461a:	00c81633          	sll	a2,a6,a2
    461e:	8fd1                	or	a5,a5,a2
    4620:	0bf71263          	bne	a4,t6,46c4 <GPIO_Init+0x160>
    4624:	00652a23          	sw	t1,20(a0)
    4628:	0585                	addi	a1,a1,1
    462a:	fdc599e3          	bne	a1,t3,45fc <GPIO_Init+0x98>
    462e:	c15c                	sw	a5,4(a0)
    4630:	1ffff637          	lui	a2,0x1ffff
    4634:	70462603          	lw	a2,1796(a2) # 1ffff704 <main.c.ab49d0c1+0x1fff409c>
    4638:	0f067613          	andi	a2,a2,240
    463c:	ea09                	bnez	a2,464e <GPIO_Init+0xea>
    463e:	40011637          	lui	a2,0x40011
    4642:	80060593          	addi	a1,a2,-2048 # 40010800 <_eusrstack+0x2000b800>
    4646:	08b51463          	bne	a0,a1,46ce <GPIO_Init+0x16a>
    464a:	80f1a223          	sw	a5,-2044(gp) # 20000024 <CFGHR_tmpA>
    464e:	67c1                	lui	a5,0x10
    4650:	04f6e663          	bltu	a3,a5,469c <GPIO_Init+0x138>
    4654:	4d50                	lw	a2,28(a0)
    4656:	4781                	li	a5,0
    4658:	4e05                	li	t3,1
    465a:	4f3d                	li	t5,15
    465c:	02800f93          	li	t6,40
    4660:	04800293          	li	t0,72
    4664:	4ea1                	li	t4,8
    4666:	01078593          	addi	a1,a5,16 # 10010 <main.c.ab49d0c1+0x49a8>
    466a:	00be15b3          	sll	a1,t3,a1
    466e:	00b6f8b3          	and	a7,a3,a1
    4672:	03159163          	bne	a1,a7,4694 <GPIO_Init+0x130>
    4676:	00279893          	slli	a7,a5,0x2
    467a:	011f1333          	sll	t1,t5,a7
    467e:	fff34313          	not	t1,t1
    4682:	00c37633          	and	a2,t1,a2
    4686:	011818b3          	sll	a7,a6,a7
    468a:	00c8e633          	or	a2,a7,a2
    468e:	05f71c63          	bne	a4,t6,46e6 <GPIO_Init+0x182>
    4692:	c94c                	sw	a1,20(a0)
    4694:	0785                	addi	a5,a5,1
    4696:	fdd798e3          	bne	a5,t4,4666 <GPIO_Init+0x102>
    469a:	cd50                	sw	a2,28(a0)
    469c:	8082                	ret
    469e:	f0571fe3          	bne	a4,t0,45bc <GPIO_Init+0x58>
    46a2:	01152823          	sw	a7,16(a0)
    46a6:	bf19                	j	45bc <GPIO_Init+0x58>
    46a8:	c0060593          	addi	a1,a2,-1024
    46ac:	00b51563          	bne	a0,a1,46b6 <GPIO_Init+0x152>
    46b0:	8081a783          	lw	a5,-2040(gp) # 20000028 <CFGHR_tmpB>
    46b4:	bf25                	j	45ec <GPIO_Init+0x88>
    46b6:	f2c51be3          	bne	a0,a2,45ec <GPIO_Init+0x88>
    46ba:	80c1a783          	lw	a5,-2036(gp) # 2000002c <CFGHR_tmpC>
    46be:	b73d                	j	45ec <GPIO_Init+0x88>
    46c0:	415c                	lw	a5,4(a0)
    46c2:	b72d                	j	45ec <GPIO_Init+0x88>
    46c4:	f65712e3          	bne	a4,t0,4628 <GPIO_Init+0xc4>
    46c8:	00652823          	sw	t1,16(a0)
    46cc:	bfb1                	j	4628 <GPIO_Init+0xc4>
    46ce:	c0060593          	addi	a1,a2,-1024
    46d2:	00b51563          	bne	a0,a1,46dc <GPIO_Init+0x178>
    46d6:	80f1a423          	sw	a5,-2040(gp) # 20000028 <CFGHR_tmpB>
    46da:	bf95                	j	464e <GPIO_Init+0xea>
    46dc:	f6c519e3          	bne	a0,a2,464e <GPIO_Init+0xea>
    46e0:	80f1a623          	sw	a5,-2036(gp) # 2000002c <CFGHR_tmpC>
    46e4:	b7ad                	j	464e <GPIO_Init+0xea>
    46e6:	fa5717e3          	bne	a4,t0,4694 <GPIO_Init+0x130>
    46ea:	00fe15b3          	sll	a1,t3,a5
    46ee:	d10c                	sw	a1,32(a0)
    46f0:	b755                	j	4694 <GPIO_Init+0x130>

000046f2 <GPIO_ReadInputDataBit>:
    46f2:	4508                	lw	a0,8(a0)
    46f4:	8d6d                	and	a0,a0,a1
    46f6:	00a03533          	snez	a0,a0
    46fa:	8082                	ret

000046fc <GPIO_SetBits>:
    46fc:	01059793          	slli	a5,a1,0x10
    4700:	83c1                	srli	a5,a5,0x10
    4702:	c91c                	sw	a5,16(a0)
    4704:	81c1                	srli	a1,a1,0x10
    4706:	d10c                	sw	a1,32(a0)
    4708:	8082                	ret

0000470a <GPIO_ResetBits>:
    470a:	c94c                	sw	a1,20(a0)
    470c:	8082                	ret

0000470e <GPIO_WriteBit>:
    470e:	ca01                	beqz	a2,471e <GPIO_WriteBit+0x10>
    4710:	01059793          	slli	a5,a1,0x10
    4714:	83c1                	srli	a5,a5,0x10
    4716:	c91c                	sw	a5,16(a0)
    4718:	81c1                	srli	a1,a1,0x10
    471a:	d10c                	sw	a1,32(a0)
    471c:	8082                	ret
    471e:	c94c                	sw	a1,20(a0)
    4720:	8082                	ret

00004722 <GPIO_EXTILineConfig>:
    4722:	00f5f793          	andi	a5,a1,15
    4726:	8191                	srli	a1,a1,0x4
    4728:	00259713          	slli	a4,a1,0x2
    472c:	400105b7          	lui	a1,0x40010
    4730:	95ba                	add	a1,a1,a4
    4732:	4594                	lw	a3,8(a1)
    4734:	0786                	slli	a5,a5,0x1
    4736:	470d                	li	a4,3
    4738:	00f71733          	sll	a4,a4,a5
    473c:	fff74713          	not	a4,a4
    4740:	8f75                	and	a4,a4,a3
    4742:	c598                	sw	a4,8(a1)
    4744:	4598                	lw	a4,8(a1)
    4746:	00f51533          	sll	a0,a0,a5
    474a:	8d59                	or	a0,a0,a4
    474c:	c588                	sw	a0,8(a1)
    474e:	8082                	ret

00004750 <NVIC_PriorityGroupConfig>:
    4750:	80a1ae23          	sw	a0,-2020(gp) # 2000003c <NVIC_Priority_Group>
    4754:	8082                	ret

00004756 <NVIC_Init>:
    4756:	81c1a703          	lw	a4,-2020(gp) # 2000003c <NVIC_Priority_Group>
    475a:	4785                	li	a5,1
    475c:	2114                	lbu	a3,0(a0)
    475e:	02f71063          	bne	a4,a5,477e <NVIC_Init+0x28>
    4762:	311c                	lbu	a5,1(a0)
    4764:	02e79c63          	bne	a5,a4,479c <NVIC_Init+0x46>
    4768:	213c                	lbu	a5,2(a0)
    476a:	0796                	slli	a5,a5,0x5
    476c:	f807e793          	ori	a5,a5,-128
    4770:	e000e737          	lui	a4,0xe000e
    4774:	0ff7f793          	zext.b	a5,a5
    4778:	9736                	add	a4,a4,a3
    477a:	40f70023          	sb	a5,1024(a4) # e000e400 <_eusrstack+0xc0009400>
    477e:	4705                	li	a4,1
    4780:	0056d793          	srli	a5,a3,0x5
    4784:	00d71733          	sll	a4,a4,a3
    4788:	4154                	lw	a3,4(a0)
    478a:	ce89                	beqz	a3,47a4 <NVIC_Init+0x4e>
    478c:	04078793          	addi	a5,a5,64
    4790:	078a                	slli	a5,a5,0x2
    4792:	e000e6b7          	lui	a3,0xe000e
    4796:	97b6                	add	a5,a5,a3
    4798:	c398                	sw	a4,0(a5)
    479a:	8082                	ret
    479c:	f3ed                	bnez	a5,477e <NVIC_Init+0x28>
    479e:	213c                	lbu	a5,2(a0)
    47a0:	0796                	slli	a5,a5,0x5
    47a2:	b7f9                	j	4770 <NVIC_Init+0x1a>
    47a4:	06078793          	addi	a5,a5,96
    47a8:	b7e5                	j	4790 <NVIC_Init+0x3a>

000047aa <OPA_Unlock>:
    47aa:	456707b7          	lui	a5,0x45670
    47ae:	40026737          	lui	a4,0x40026
    47b2:	12378793          	addi	a5,a5,291 # 45670123 <_eusrstack+0x2566b123>
    47b6:	c75c                	sw	a5,12(a4)
    47b8:	cdef97b7          	lui	a5,0xcdef9
    47bc:	9ab78793          	addi	a5,a5,-1621 # cdef89ab <_eusrstack+0xadef39ab>
    47c0:	c75c                	sw	a5,12(a4)
    47c2:	8082                	ret

000047c4 <OPA_Init>:
    47c4:	40026737          	lui	a4,0x40026
    47c8:	2312                	lhu	a2,0(a4)
    47ca:	2336                	lhu	a3,2(a4)
    47cc:	415c                	lw	a5,4(a0)
    47ce:	4358                	lw	a4,4(a4)
    47d0:	01061813          	slli	a6,a2,0x10
    47d4:	06c2                	slli	a3,a3,0x10
    47d6:	01085813          	srli	a6,a6,0x10
    47da:	82c1                	srli	a3,a3,0x10
    47dc:	efa5                	bnez	a5,4854 <OPA_Init+0x90>
    47de:	595c                	lw	a5,52(a0)
    47e0:	cff6f693          	andi	a3,a3,-769
    47e4:	4510                	lw	a2,8(a0)
    47e6:	07a6                	slli	a5,a5,0x9
    47e8:	8edd                	or	a3,a3,a5
    47ea:	455c                	lw	a5,12(a0)
    47ec:	75c1                	lui	a1,0xffff0
    47ee:	0606                	slli	a2,a2,0x1
    47f0:	078e                	slli	a5,a5,0x3
    47f2:	0585                	addi	a1,a1,1 # ffff0001 <_eusrstack+0xdffeb001>
    47f4:	8e5d                	or	a2,a2,a5
    47f6:	8f6d                	and	a4,a4,a1
    47f8:	8f51                	or	a4,a4,a2
    47fa:	4910                	lw	a2,16(a0)
    47fc:	06c2                	slli	a3,a3,0x10
    47fe:	82c1                	srli	a3,a3,0x10
    4800:	0616                	slli	a2,a2,0x5
    4802:	8e59                	or	a2,a2,a4
    4804:	4958                	lw	a4,20(a0)
    4806:	071a                	slli	a4,a4,0x6
    4808:	8f51                	or	a4,a4,a2
    480a:	4d5c                	lw	a5,28(a0)
    480c:	4d10                	lw	a2,24(a0)
    480e:	f006f693          	andi	a3,a3,-256
    4812:	078a                	slli	a5,a5,0x2
    4814:	00c86633          	or	a2,a6,a2
    4818:	8fd1                	or	a5,a5,a2
    481a:	5110                	lw	a2,32(a0)
    481c:	06c2                	slli	a3,a3,0x10
    481e:	82c1                	srli	a3,a3,0x10
    4820:	0612                	slli	a2,a2,0x4
    4822:	8fd1                	or	a5,a5,a2
    4824:	5150                	lw	a2,36(a0)
    4826:	061a                	slli	a2,a2,0x6
    4828:	8fd1                	or	a5,a5,a2
    482a:	5510                	lw	a2,40(a0)
    482c:	0622                	slli	a2,a2,0x8
    482e:	8fd1                	or	a5,a5,a2
    4830:	5550                	lw	a2,44(a0)
    4832:	062a                	slli	a2,a2,0xa
    4834:	8fd1                	or	a5,a5,a2
    4836:	5910                	lw	a2,48(a0)
    4838:	07c2                	slli	a5,a5,0x10
    483a:	83c1                	srli	a5,a5,0x10
    483c:	062e                	slli	a2,a2,0xb
    483e:	8fd1                	or	a5,a5,a2
    4840:	2112                	lhu	a2,0(a0)
    4842:	07c2                	slli	a5,a5,0x10
    4844:	83c1                	srli	a5,a5,0x10
    4846:	8ed1                	or	a3,a3,a2
    4848:	40026637          	lui	a2,0x40026
    484c:	a21e                	sh	a5,0(a2)
    484e:	a236                	sh	a3,2(a2)
    4850:	c258                	sw	a4,4(a2)
    4852:	8082                	ret
    4854:	4605                	li	a2,1
    4856:	fac79ae3          	bne	a5,a2,480a <OPA_Init+0x46>
    485a:	595c                	lw	a5,52(a0)
    485c:	767d                	lui	a2,0xfffff
    485e:	3ff60613          	addi	a2,a2,1023 # fffff3ff <_eusrstack+0xdfffa3ff>
    4862:	8ef1                	and	a3,a3,a2
    4864:	07ae                	slli	a5,a5,0xb
    4866:	8edd                	or	a3,a3,a5
    4868:	4510                	lw	a2,8(a0)
    486a:	455c                	lw	a5,12(a0)
    486c:	073e                	slli	a4,a4,0xf
    486e:	0646                	slli	a2,a2,0x11
    4870:	07ce                	slli	a5,a5,0x13
    4872:	8e5d                	or	a2,a2,a5
    4874:	833d                	srli	a4,a4,0xf
    4876:	8f51                	or	a4,a4,a2
    4878:	4910                	lw	a2,16(a0)
    487a:	06c2                	slli	a3,a3,0x10
    487c:	82c1                	srli	a3,a3,0x10
    487e:	0656                	slli	a2,a2,0x15
    4880:	8e59                	or	a2,a2,a4
    4882:	4958                	lw	a4,20(a0)
    4884:	075a                	slli	a4,a4,0x16
    4886:	b749                	j	4808 <OPA_Init+0x44>

00004888 <OPA_Cmd>:
    4888:	0512                	slli	a0,a0,0x4
    488a:	4785                	li	a5,1
    488c:	00a79533          	sll	a0,a5,a0
    4890:	00f59863          	bne	a1,a5,48a0 <OPA_Cmd+0x18>
    4894:	40026737          	lui	a4,0x40026
    4898:	435c                	lw	a5,4(a4)
    489a:	8d5d                	or	a0,a0,a5
    489c:	c348                	sw	a0,4(a4)
    489e:	8082                	ret
    48a0:	400267b7          	lui	a5,0x40026
    48a4:	43d8                	lw	a4,4(a5)
    48a6:	fff54513          	not	a0,a0
    48aa:	8d79                	and	a0,a0,a4
    48ac:	c3c8                	sw	a0,4(a5)
    48ae:	8082                	ret

000048b0 <RCC_GetClocksFreq>:
    48b0:	02dc77b7          	lui	a5,0x2dc7
    48b4:	c0078793          	addi	a5,a5,-1024 # 2dc6c00 <main.c.ab49d0c1+0x2dbb598>
    48b8:	c11c                	sw	a5,0(a0)
    48ba:	40021637          	lui	a2,0x40021
    48be:	4258                	lw	a4,4(a2)
    48c0:	8311                	srli	a4,a4,0x4
    48c2:	00f77693          	andi	a3,a4,15
    48c6:	20000737          	lui	a4,0x20000
    48ca:	01070713          	addi	a4,a4,16 # 20000010 <APBAHBPrescTable>
    48ce:	9736                	add	a4,a4,a3
    48d0:	2314                	lbu	a3,0(a4)
    48d2:	4250                	lw	a2,4(a2)
    48d4:	0ff6f693          	zext.b	a3,a3
    48d8:	08067613          	andi	a2,a2,128
    48dc:	00d7d733          	srl	a4,a5,a3
    48e0:	e219                	bnez	a2,48e6 <RCC_GetClocksFreq+0x36>
    48e2:	02d7d733          	divu	a4,a5,a3
    48e6:	c158                	sw	a4,4(a0)
    48e8:	c518                	sw	a4,8(a0)
    48ea:	c558                	sw	a4,12(a0)
    48ec:	8082                	ret

000048ee <RCC_AHBPeriphClockCmd>:
    48ee:	c599                	beqz	a1,48fc <RCC_AHBPeriphClockCmd+0xe>
    48f0:	40021737          	lui	a4,0x40021
    48f4:	4b5c                	lw	a5,20(a4)
    48f6:	8d5d                	or	a0,a0,a5
    48f8:	cb48                	sw	a0,20(a4)
    48fa:	8082                	ret
    48fc:	400217b7          	lui	a5,0x40021
    4900:	4bd8                	lw	a4,20(a5)
    4902:	fff54513          	not	a0,a0
    4906:	8d79                	and	a0,a0,a4
    4908:	cbc8                	sw	a0,20(a5)
    490a:	8082                	ret

0000490c <RCC_APB2PeriphClockCmd>:
    490c:	c599                	beqz	a1,491a <RCC_APB2PeriphClockCmd+0xe>
    490e:	40021737          	lui	a4,0x40021
    4912:	4f1c                	lw	a5,24(a4)
    4914:	8d5d                	or	a0,a0,a5
    4916:	cf08                	sw	a0,24(a4)
    4918:	8082                	ret
    491a:	400217b7          	lui	a5,0x40021
    491e:	4f98                	lw	a4,24(a5)
    4920:	fff54513          	not	a0,a0
    4924:	8d79                	and	a0,a0,a4
    4926:	cf88                	sw	a0,24(a5)
    4928:	8082                	ret

0000492a <RCC_APB1PeriphClockCmd>:
    492a:	c599                	beqz	a1,4938 <RCC_APB1PeriphClockCmd+0xe>
    492c:	40021737          	lui	a4,0x40021
    4930:	4f5c                	lw	a5,28(a4)
    4932:	8d5d                	or	a0,a0,a5
    4934:	cf48                	sw	a0,28(a4)
    4936:	8082                	ret
    4938:	400217b7          	lui	a5,0x40021
    493c:	4fd8                	lw	a4,28(a5)
    493e:	fff54513          	not	a0,a0
    4942:	8d79                	and	a0,a0,a4
    4944:	cfc8                	sw	a0,28(a5)
    4946:	8082                	ret

00004948 <RCC_APB2PeriphResetCmd>:
    4948:	c599                	beqz	a1,4956 <RCC_APB2PeriphResetCmd+0xe>
    494a:	40021737          	lui	a4,0x40021
    494e:	475c                	lw	a5,12(a4)
    4950:	8d5d                	or	a0,a0,a5
    4952:	c748                	sw	a0,12(a4)
    4954:	8082                	ret
    4956:	400217b7          	lui	a5,0x40021
    495a:	47d8                	lw	a4,12(a5)
    495c:	fff54513          	not	a0,a0
    4960:	8d79                	and	a0,a0,a4
    4962:	c7c8                	sw	a0,12(a5)
    4964:	8082                	ret

00004966 <TIM_TimeBaseInit>:
    4966:	211e                	lhu	a5,0(a0)
    4968:	40013737          	lui	a4,0x40013
    496c:	c0070713          	addi	a4,a4,-1024 # 40012c00 <_eusrstack+0x2000dc00>
    4970:	07c2                	slli	a5,a5,0x10
    4972:	83c1                	srli	a5,a5,0x10
    4974:	00e50663          	beq	a0,a4,4980 <TIM_TimeBaseInit+0x1a>
    4978:	40000737          	lui	a4,0x40000
    497c:	00e51663          	bne	a0,a4,4988 <TIM_TimeBaseInit+0x22>
    4980:	21ba                	lhu	a4,2(a1)
    4982:	f8f7f793          	andi	a5,a5,-113
    4986:	8fd9                	or	a5,a5,a4
    4988:	21fa                	lhu	a4,6(a1)
    498a:	cff7f793          	andi	a5,a5,-769
    498e:	07c2                	slli	a5,a5,0x10
    4990:	83c1                	srli	a5,a5,0x10
    4992:	8fd9                	or	a5,a5,a4
    4994:	a11e                	sh	a5,0(a0)
    4996:	21de                	lhu	a5,4(a1)
    4998:	b55e                	sh	a5,44(a0)
    499a:	219e                	lhu	a5,0(a1)
    499c:	b51e                	sh	a5,40(a0)
    499e:	400137b7          	lui	a5,0x40013
    49a2:	c0078793          	addi	a5,a5,-1024 # 40012c00 <_eusrstack+0x2000dc00>
    49a6:	00f50663          	beq	a0,a5,49b2 <TIM_TimeBaseInit+0x4c>
    49aa:	400007b7          	lui	a5,0x40000
    49ae:	00f51463          	bne	a0,a5,49b6 <TIM_TimeBaseInit+0x50>
    49b2:	259c                	lbu	a5,8(a1)
    49b4:	b91e                	sh	a5,48(a0)
    49b6:	4785                	li	a5,1
    49b8:	a95e                	sh	a5,20(a0)
    49ba:	8082                	ret

000049bc <TIM_Cmd>:
    49bc:	211e                	lhu	a5,0(a0)
    49be:	c589                	beqz	a1,49c8 <TIM_Cmd+0xc>
    49c0:	0017e793          	ori	a5,a5,1
    49c4:	a11e                	sh	a5,0(a0)
    49c6:	8082                	ret
    49c8:	07c2                	slli	a5,a5,0x10
    49ca:	83c1                	srli	a5,a5,0x10
    49cc:	9bf9                	andi	a5,a5,-2
    49ce:	07c2                	slli	a5,a5,0x10
    49d0:	83c1                	srli	a5,a5,0x10
    49d2:	bfcd                	j	49c4 <TIM_Cmd+0x8>

000049d4 <TIM_ITConfig>:
    49d4:	255e                	lhu	a5,12(a0)
    49d6:	c601                	beqz	a2,49de <TIM_ITConfig+0xa>
    49d8:	8ddd                	or	a1,a1,a5
    49da:	a54e                	sh	a1,12(a0)
    49dc:	8082                	ret
    49de:	fff5c593          	not	a1,a1
    49e2:	8dfd                	and	a1,a1,a5
    49e4:	bfdd                	j	49da <TIM_ITConfig+0x6>

000049e6 <TIM_SetCounter>:
    49e6:	b14e                	sh	a1,36(a0)
    49e8:	8082                	ret

000049ea <TIM_GetITStatus>:
    49ea:	291e                	lhu	a5,16(a0)
    49ec:	254a                	lhu	a0,12(a0)
    49ee:	8fed                	and	a5,a5,a1
    49f0:	0542                	slli	a0,a0,0x10
    49f2:	8141                	srli	a0,a0,0x10
    49f4:	c789                	beqz	a5,49fe <TIM_GetITStatus+0x14>
    49f6:	8d6d                	and	a0,a0,a1
    49f8:	00a03533          	snez	a0,a0
    49fc:	8082                	ret
    49fe:	4501                	li	a0,0
    4a00:	8082                	ret

00004a02 <TIM_ClearITPendingBit>:
    4a02:	fff5c593          	not	a1,a1
    4a06:	05c2                	slli	a1,a1,0x10
    4a08:	81c1                	srli	a1,a1,0x10
    4a0a:	a90e                	sh	a1,16(a0)
    4a0c:	8082                	ret

00004a0e <USART_Init>:
    4a0e:	f22fb2ef          	jal	t0,130 <__riscv_save_0>
    4a12:	2916                	lhu	a3,16(a0)
    4a14:	77f5                	lui	a5,0xffffd
    4a16:	17fd                	addi	a5,a5,-1 # ffffcfff <_eusrstack+0xdfff7fff>
    4a18:	8ff5                	and	a5,a5,a3
    4a1a:	21f6                	lhu	a3,6(a1)
    4a1c:	25da                	lhu	a4,12(a1)
    4a1e:	1101                	addi	sp,sp,-32
    4a20:	8fd5                	or	a5,a5,a3
    4a22:	a91e                	sh	a5,16(a0)
    4a24:	2556                	lhu	a3,12(a0)
    4a26:	77fd                	lui	a5,0xfffff
    4a28:	9f378793          	addi	a5,a5,-1549 # ffffe9f3 <_eusrstack+0xdfff99f3>
    4a2c:	8ff5                	and	a5,a5,a3
    4a2e:	21d6                	lhu	a3,4(a1)
    4a30:	842a                	mv	s0,a0
    4a32:	c62e                	sw	a1,12(sp)
    4a34:	8fd5                	or	a5,a5,a3
    4a36:	2596                	lhu	a3,8(a1)
    4a38:	8fd5                	or	a5,a5,a3
    4a3a:	25b6                	lhu	a3,10(a1)
    4a3c:	8fd5                	or	a5,a5,a3
    4a3e:	a55e                	sh	a5,12(a0)
    4a40:	295e                	lhu	a5,20(a0)
    4a42:	07c2                	slli	a5,a5,0x10
    4a44:	83c1                	srli	a5,a5,0x10
    4a46:	cff7f793          	andi	a5,a5,-769
    4a4a:	8fd9                	or	a5,a5,a4
    4a4c:	a95e                	sh	a5,20(a0)
    4a4e:	0808                	addi	a0,sp,16
    4a50:	e61ff0ef          	jal	ra,48b0 <RCC_GetClocksFreq>
    4a54:	400147b7          	lui	a5,0x40014
    4a58:	80078793          	addi	a5,a5,-2048 # 40013800 <_eusrstack+0x2000e800>
    4a5c:	45b2                	lw	a1,12(sp)
    4a5e:	02f41e63          	bne	s0,a5,4a9a <USART_Init+0x8c>
    4a62:	47f2                	lw	a5,28(sp)
    4a64:	4765                	li	a4,25
    4a66:	02e787b3          	mul	a5,a5,a4
    4a6a:	4198                	lw	a4,0(a1)
    4a6c:	06400693          	li	a3,100
    4a70:	070a                	slli	a4,a4,0x2
    4a72:	02e7d7b3          	divu	a5,a5,a4
    4a76:	02d7d733          	divu	a4,a5,a3
    4a7a:	02d7f7b3          	remu	a5,a5,a3
    4a7e:	0712                	slli	a4,a4,0x4
    4a80:	0792                	slli	a5,a5,0x4
    4a82:	03278793          	addi	a5,a5,50
    4a86:	02d7d7b3          	divu	a5,a5,a3
    4a8a:	8bbd                	andi	a5,a5,15
    4a8c:	8fd9                	or	a5,a5,a4
    4a8e:	07c2                	slli	a5,a5,0x10
    4a90:	83c1                	srli	a5,a5,0x10
    4a92:	a41e                	sh	a5,8(s0)
    4a94:	6105                	addi	sp,sp,32
    4a96:	ebefb06f          	j	154 <__riscv_restore_0>
    4a9a:	47e2                	lw	a5,24(sp)
    4a9c:	b7e1                	j	4a64 <USART_Init+0x56>

00004a9e <USART_Cmd>:
    4a9e:	c591                	beqz	a1,4aaa <USART_Cmd+0xc>
    4aa0:	255e                	lhu	a5,12(a0)
    4aa2:	6709                	lui	a4,0x2
    4aa4:	8fd9                	or	a5,a5,a4
    4aa6:	a55e                	sh	a5,12(a0)
    4aa8:	8082                	ret
    4aaa:	255a                	lhu	a4,12(a0)
    4aac:	77f9                	lui	a5,0xffffe
    4aae:	17fd                	addi	a5,a5,-1 # ffffdfff <_eusrstack+0xdfff8fff>
    4ab0:	8ff9                	and	a5,a5,a4
    4ab2:	bfd5                	j	4aa6 <USART_Cmd+0x8>

00004ab4 <USART_SendData>:
    4ab4:	1ff5f593          	andi	a1,a1,511
    4ab8:	a14e                	sh	a1,4(a0)
    4aba:	8082                	ret

00004abc <USART_GetFlagStatus>:
    4abc:	210a                	lhu	a0,0(a0)
    4abe:	8d6d                	and	a0,a0,a1
    4ac0:	00a03533          	snez	a0,a0
    4ac4:	8082                	ret

00004ac6 <Delay_Init>:
    4ac6:	200007b7          	lui	a5,0x20000
    4aca:	0207a783          	lw	a5,32(a5) # 20000020 <SystemCoreClock>
    4ace:	007a1737          	lui	a4,0x7a1
    4ad2:	20070713          	addi	a4,a4,512 # 7a1200 <main.c.ab49d0c1+0x795b98>
    4ad6:	02e7d7b3          	divu	a5,a5,a4
    4ada:	0ff7f793          	zext.b	a5,a5
    4ade:	82f18123          	sb	a5,-2014(gp) # 20000042 <p_us>
    4ae2:	3e800713          	li	a4,1000
    4ae6:	02e787b3          	mul	a5,a5,a4
    4aea:	82f19023          	sh	a5,-2016(gp) # 20000040 <p_ms>
    4aee:	8082                	ret

00004af0 <Delay_Us>:
    4af0:	e000f7b7          	lui	a5,0xe000f
    4af4:	43d8                	lw	a4,4(a5)
    4af6:	4681                	li	a3,0
    4af8:	9b79                	andi	a4,a4,-2
    4afa:	c3d8                	sw	a4,4(a5)
    4afc:	8221c703          	lbu	a4,-2014(gp) # 20000042 <p_us>
    4b00:	02a70633          	mul	a2,a4,a0
    4b04:	cb90                	sw	a2,16(a5)
    4b06:	cbd4                	sw	a3,20(a5)
    4b08:	4398                	lw	a4,0(a5)
    4b0a:	01076713          	ori	a4,a4,16
    4b0e:	c398                	sw	a4,0(a5)
    4b10:	4398                	lw	a4,0(a5)
    4b12:	02176713          	ori	a4,a4,33
    4b16:	c398                	sw	a4,0(a5)
    4b18:	43d8                	lw	a4,4(a5)
    4b1a:	8b05                	andi	a4,a4,1
    4b1c:	df75                	beqz	a4,4b18 <Delay_Us+0x28>
    4b1e:	4398                	lw	a4,0(a5)
    4b20:	9b79                	andi	a4,a4,-2
    4b22:	c398                	sw	a4,0(a5)
    4b24:	8082                	ret

00004b26 <Delay_Ms>:
    4b26:	e000f7b7          	lui	a5,0xe000f
    4b2a:	43d8                	lw	a4,4(a5)
    4b2c:	4681                	li	a3,0
    4b2e:	9b79                	andi	a4,a4,-2
    4b30:	c3d8                	sw	a4,4(a5)
    4b32:	8201d703          	lhu	a4,-2016(gp) # 20000040 <p_ms>
    4b36:	02a70633          	mul	a2,a4,a0
    4b3a:	cb90                	sw	a2,16(a5)
    4b3c:	cbd4                	sw	a3,20(a5)
    4b3e:	4398                	lw	a4,0(a5)
    4b40:	01076713          	ori	a4,a4,16
    4b44:	c398                	sw	a4,0(a5)
    4b46:	4398                	lw	a4,0(a5)
    4b48:	02176713          	ori	a4,a4,33
    4b4c:	c398                	sw	a4,0(a5)
    4b4e:	43d8                	lw	a4,4(a5)
    4b50:	8b05                	andi	a4,a4,1
    4b52:	df75                	beqz	a4,4b4e <Delay_Ms+0x28>
    4b54:	4398                	lw	a4,0(a5)
    4b56:	9b79                	andi	a4,a4,-2
    4b58:	c398                	sw	a4,0(a5)
    4b5a:	8082                	ret

00004b5c <USART_Printf_Init>:
    4b5c:	dd4fb2ef          	jal	t0,130 <__riscv_save_0>
    4b60:	1101                	addi	sp,sp,-32
    4b62:	842a                	mv	s0,a0
    4b64:	4585                	li	a1,1
    4b66:	00020537          	lui	a0,0x20
    4b6a:	dc1ff0ef          	jal	ra,492a <RCC_APB1PeriphClockCmd>
    4b6e:	4585                	li	a1,1
    4b70:	4511                	li	a0,4
    4b72:	d9bff0ef          	jal	ra,490c <RCC_APB2PeriphClockCmd>
    4b76:	4791                	li	a5,4
    4b78:	c23e                	sw	a5,4(sp)
    4b7a:	40011537          	lui	a0,0x40011
    4b7e:	4785                	li	a5,1
    4b80:	c43e                	sw	a5,8(sp)
    4b82:	004c                	addi	a1,sp,4
    4b84:	47e1                	li	a5,24
    4b86:	80050513          	addi	a0,a0,-2048 # 40010800 <_eusrstack+0x2000b800>
    4b8a:	c63e                	sw	a5,12(sp)
    4b8c:	9d9ff0ef          	jal	ra,4564 <GPIO_Init>
    4b90:	c822                	sw	s0,16(sp)
    4b92:	40004437          	lui	s0,0x40004
    4b96:	000807b7          	lui	a5,0x80
    4b9a:	080c                	addi	a1,sp,16
    4b9c:	40040513          	addi	a0,s0,1024 # 40004400 <_eusrstack+0x1ffff400>
    4ba0:	cc3e                	sw	a5,24(sp)
    4ba2:	ca02                	sw	zero,20(sp)
    4ba4:	00011e23          	sh	zero,28(sp)
    4ba8:	e67ff0ef          	jal	ra,4a0e <USART_Init>
    4bac:	4585                	li	a1,1
    4bae:	40040513          	addi	a0,s0,1024
    4bb2:	eedff0ef          	jal	ra,4a9e <USART_Cmd>
    4bb6:	6105                	addi	sp,sp,32
    4bb8:	d9cfb06f          	j	154 <__riscv_restore_0>

00004bbc <_write>:
    4bbc:	d5afb2ef          	jal	t0,116 <__riscv_save_4>
    4bc0:	400044b7          	lui	s1,0x40004
    4bc4:	89ae                	mv	s3,a1
    4bc6:	8932                	mv	s2,a2
    4bc8:	4401                	li	s0,0
    4bca:	40048493          	addi	s1,s1,1024 # 40004400 <_eusrstack+0x1ffff400>
    4bce:	01244563          	blt	s0,s2,4bd8 <_write+0x1c>
    4bd2:	854a                	mv	a0,s2
    4bd4:	d76fb06f          	j	14a <__riscv_restore_4>
    4bd8:	04000593          	li	a1,64
    4bdc:	8526                	mv	a0,s1
    4bde:	edfff0ef          	jal	ra,4abc <USART_GetFlagStatus>
    4be2:	d97d                	beqz	a0,4bd8 <_write+0x1c>
    4be4:	008987b3          	add	a5,s3,s0
    4be8:	00078583          	lb	a1,0(a5) # 80000 <main.c.ab49d0c1+0x74998>
    4bec:	8526                	mv	a0,s1
    4bee:	0405                	addi	s0,s0,1
    4bf0:	05c2                	slli	a1,a1,0x10
    4bf2:	81c1                	srli	a1,a1,0x10
    4bf4:	ec1ff0ef          	jal	ra,4ab4 <USART_SendData>
    4bf8:	bfd9                	j	4bce <_write+0x12>

00004bfa <__get_MEPC>:
    4bfa:	34102573          	csrr	a0,mepc
    4bfe:	8082                	ret

00004c00 <__get_MCAUSE>:
    4c00:	34202573          	csrr	a0,mcause
    4c04:	8082                	ret

00004c06 <__get_MTVAL>:
    4c06:	34302573          	csrr	a0,mtval
    4c0a:	8082                	ret

00004c0c <printchar>:
    4c0c:	1101                	addi	sp,sp,-32
    4c0e:	ce06                	sw	ra,28(sp)
    4c10:	c62e                	sw	a1,12(sp)
    4c12:	cd0d                	beqz	a0,4c4c <printchar+0x40>
    4c14:	4118                	lw	a4,0(a0)
    4c16:	87aa                	mv	a5,a0
    4c18:	c305                	beqz	a4,4c38 <printchar+0x2c>
    4c1a:	4158                	lw	a4,4(a0)
    4c1c:	557d                	li	a0,-1
    4c1e:	cb11                	beqz	a4,4c32 <printchar+0x26>
    4c20:	4685                	li	a3,1
    4c22:	00d71b63          	bne	a4,a3,4c38 <printchar+0x2c>
    4c26:	4798                	lw	a4,8(a5)
    4c28:	00070023          	sb	zero,0(a4)
    4c2c:	0007a223          	sw	zero,4(a5)
    4c30:	4505                	li	a0,1
    4c32:	40f2                	lw	ra,28(sp)
    4c34:	6105                	addi	sp,sp,32
    4c36:	8082                	ret
    4c38:	4798                	lw	a4,8(a5)
    4c3a:	46b2                	lw	a3,12(sp)
    4c3c:	a314                	sb	a3,0(a4)
    4c3e:	4798                	lw	a4,8(a5)
    4c40:	0705                	addi	a4,a4,1
    4c42:	c798                	sw	a4,8(a5)
    4c44:	43d8                	lw	a4,4(a5)
    4c46:	177d                	addi	a4,a4,-1
    4c48:	c3d8                	sw	a4,4(a5)
    4c4a:	b7dd                	j	4c30 <printchar+0x24>
    4c4c:	4605                	li	a2,1
    4c4e:	006c                	addi	a1,sp,12
    4c50:	f6dff0ef          	jal	ra,4bbc <_write>
    4c54:	bff1                	j	4c30 <printchar+0x24>

00004c56 <prints>:
    4c56:	7179                	addi	sp,sp,-48
    4c58:	d422                	sw	s0,40(sp)
    4c5a:	d226                	sw	s1,36(sp)
    4c5c:	ce4e                	sw	s3,28(sp)
    4c5e:	cc52                	sw	s4,24(sp)
    4c60:	ca56                	sw	s5,20(sp)
    4c62:	d606                	sw	ra,44(sp)
    4c64:	d04a                	sw	s2,32(sp)
    4c66:	c85a                	sw	s6,16(sp)
    4c68:	8a2a                	mv	s4,a0
    4c6a:	8aae                	mv	s5,a1
    4c6c:	8432                	mv	s0,a2
    4c6e:	4481                	li	s1,0
    4c70:	02000993          	li	s3,32
    4c74:	02064463          	bltz	a2,4c9c <prints+0x46>
    4c78:	009a87b3          	add	a5,s5,s1
    4c7c:	00078783          	lb	a5,0(a5)
    4c80:	e39d                	bnez	a5,4ca6 <prints+0x50>
    4c82:	0284d663          	bge	s1,s0,4cae <prints+0x58>
    4c86:	02e4d263          	bge	s1,a4,4caa <prints+0x54>
    4c8a:	8c19                	sub	s0,s0,a4
    4c8c:	0026f793          	andi	a5,a3,2
    4c90:	02000993          	li	s3,32
    4c94:	c781                	beqz	a5,4c9c <prints+0x46>
    4c96:	e319                	bnez	a4,4c9c <prints+0x46>
    4c98:	03000993          	li	s3,48
    4c9c:	8a85                	andi	a3,a3,1
    4c9e:	4901                	li	s2,0
    4ca0:	ea85                	bnez	a3,4cd0 <prints+0x7a>
    4ca2:	8922                	mv	s2,s0
    4ca4:	a831                	j	4cc0 <prints+0x6a>
    4ca6:	0485                	addi	s1,s1,1
    4ca8:	bfc1                	j	4c78 <prints+0x22>
    4caa:	8c05                	sub	s0,s0,s1
    4cac:	b7c5                	j	4c8c <prints+0x36>
    4cae:	4401                	li	s0,0
    4cb0:	bff1                	j	4c8c <prints+0x36>
    4cb2:	85ce                	mv	a1,s3
    4cb4:	8552                	mv	a0,s4
    4cb6:	c63a                	sw	a4,12(sp)
    4cb8:	f55ff0ef          	jal	ra,4c0c <printchar>
    4cbc:	4732                	lw	a4,12(sp)
    4cbe:	197d                	addi	s2,s2,-1
    4cc0:	ff2049e3          	bgtz	s2,4cb2 <prints+0x5c>
    4cc4:	8922                	mv	s2,s0
    4cc6:	00045363          	bgez	s0,4ccc <prints+0x76>
    4cca:	4901                	li	s2,0
    4ccc:	41240433          	sub	s0,s0,s2
    4cd0:	02e4cb63          	blt	s1,a4,4d06 <prints+0xb0>
    4cd4:	84ca                	mv	s1,s2
    4cd6:	412487b3          	sub	a5,s1,s2
    4cda:	97d6                	add	a5,a5,s5
    4cdc:	00078583          	lb	a1,0(a5)
    4ce0:	e1a1                	bnez	a1,4d20 <prints+0xca>
    4ce2:	8922                	mv	s2,s0
    4ce4:	05204363          	bgtz	s2,4d2a <prints+0xd4>
    4ce8:	00045363          	bgez	s0,4cee <prints+0x98>
    4cec:	4401                	li	s0,0
    4cee:	00940533          	add	a0,s0,s1
    4cf2:	50b2                	lw	ra,44(sp)
    4cf4:	5422                	lw	s0,40(sp)
    4cf6:	5492                	lw	s1,36(sp)
    4cf8:	5902                	lw	s2,32(sp)
    4cfa:	49f2                	lw	s3,28(sp)
    4cfc:	4a62                	lw	s4,24(sp)
    4cfe:	4ad2                	lw	s5,20(sp)
    4d00:	4b42                	lw	s6,16(sp)
    4d02:	6145                	addi	sp,sp,48
    4d04:	8082                	ret
    4d06:	409704b3          	sub	s1,a4,s1
    4d0a:	8b26                	mv	s6,s1
    4d0c:	03000593          	li	a1,48
    4d10:	8552                	mv	a0,s4
    4d12:	1b7d                	addi	s6,s6,-1
    4d14:	ef9ff0ef          	jal	ra,4c0c <printchar>
    4d18:	fe0b1ae3          	bnez	s6,4d0c <prints+0xb6>
    4d1c:	9926                	add	s2,s2,s1
    4d1e:	bf5d                	j	4cd4 <prints+0x7e>
    4d20:	8552                	mv	a0,s4
    4d22:	eebff0ef          	jal	ra,4c0c <printchar>
    4d26:	0485                	addi	s1,s1,1
    4d28:	b77d                	j	4cd6 <prints+0x80>
    4d2a:	85ce                	mv	a1,s3
    4d2c:	8552                	mv	a0,s4
    4d2e:	edfff0ef          	jal	ra,4c0c <printchar>
    4d32:	197d                	addi	s2,s2,-1
    4d34:	bf45                	j	4ce4 <prints+0x8e>

00004d36 <printInt>:
    4d36:	715d                	addi	sp,sp,-80
    4d38:	c2a6                	sw	s1,68(sp)
    4d3a:	dc52                	sw	s4,56(sp)
    4d3c:	c686                	sw	ra,76(sp)
    4d3e:	c4a2                	sw	s0,72(sp)
    4d40:	c0ca                	sw	s2,64(sp)
    4d42:	de4e                	sw	s3,60(sp)
    4d44:	da56                	sw	s5,52(sp)
    4d46:	84ba                	mv	s1,a4
    4d48:	8a3e                	mv	s4,a5
    4d4a:	e19d                	bnez	a1,4d70 <printInt+0x3a>
    4d4c:	03000793          	li	a5,48
    4d50:	4701                	li	a4,0
    4d52:	86d2                	mv	a3,s4
    4d54:	8626                	mv	a2,s1
    4d56:	082c                	addi	a1,sp,24
    4d58:	84fc                	sh	a5,24(sp)
    4d5a:	efdff0ef          	jal	ra,4c56 <prints>
    4d5e:	40b6                	lw	ra,76(sp)
    4d60:	4426                	lw	s0,72(sp)
    4d62:	4496                	lw	s1,68(sp)
    4d64:	4906                	lw	s2,64(sp)
    4d66:	59f2                	lw	s3,60(sp)
    4d68:	5a62                	lw	s4,56(sp)
    4d6a:	5ad2                	lw	s5,52(sp)
    4d6c:	6161                	addi	sp,sp,80
    4d6e:	8082                	ret
    4d70:	892a                	mv	s2,a0
    4d72:	8436                	mv	s0,a3
    4d74:	8ac6                	mv	s5,a7
    4d76:	ca91                	beqz	a3,4d8a <printInt+0x54>
    4d78:	47a9                	li	a5,10
    4d7a:	4401                	li	s0,0
    4d7c:	00f61763          	bne	a2,a5,4d8a <printInt+0x54>
    4d80:	0005d563          	bgez	a1,4d8a <printInt+0x54>
    4d84:	40b005b3          	neg	a1,a1
    4d88:	4405                	li	s0,1
    4d8a:	020107a3          	sb	zero,47(sp)
    4d8e:	02f10793          	addi	a5,sp,47
    4d92:	46a5                	li	a3,9
    4d94:	fc680513          	addi	a0,a6,-58
    4d98:	02c5f733          	remu	a4,a1,a2
    4d9c:	00e6d363          	bge	a3,a4,4da2 <printInt+0x6c>
    4da0:	972a                	add	a4,a4,a0
    4da2:	03070713          	addi	a4,a4,48
    4da6:	fee78fa3          	sb	a4,-1(a5)
    4daa:	fff78993          	addi	s3,a5,-1
    4dae:	02c5d733          	divu	a4,a1,a2
    4db2:	04c5fb63          	bgeu	a1,a2,4e08 <printInt+0xd2>
    4db6:	cc09                	beqz	s0,4dd0 <printInt+0x9a>
    4db8:	c8b9                	beqz	s1,4e0e <printInt+0xd8>
    4dba:	002a7713          	andi	a4,s4,2
    4dbe:	cb21                	beqz	a4,4e0e <printInt+0xd8>
    4dc0:	02d00593          	li	a1,45
    4dc4:	854a                	mv	a0,s2
    4dc6:	c642                	sw	a6,12(sp)
    4dc8:	e45ff0ef          	jal	ra,4c0c <printchar>
    4dcc:	4832                	lw	a6,12(sp)
    4dce:	14fd                	addi	s1,s1,-1
    4dd0:	004a7793          	andi	a5,s4,4
    4dd4:	c38d                	beqz	a5,4df6 <printInt+0xc0>
    4dd6:	06100793          	li	a5,97
    4dda:	03000593          	li	a1,48
    4dde:	854a                	mv	a0,s2
    4de0:	02f81f63          	bne	a6,a5,4e1e <printInt+0xe8>
    4de4:	e29ff0ef          	jal	ra,4c0c <printchar>
    4de8:	07800593          	li	a1,120
    4dec:	854a                	mv	a0,s2
    4dee:	e1fff0ef          	jal	ra,4c0c <printchar>
    4df2:	0409                	addi	s0,s0,2
    4df4:	14f9                	addi	s1,s1,-2
    4df6:	8756                	mv	a4,s5
    4df8:	86d2                	mv	a3,s4
    4dfa:	8626                	mv	a2,s1
    4dfc:	85ce                	mv	a1,s3
    4dfe:	854a                	mv	a0,s2
    4e00:	e57ff0ef          	jal	ra,4c56 <prints>
    4e04:	9522                	add	a0,a0,s0
    4e06:	bfa1                	j	4d5e <printInt+0x28>
    4e08:	85ba                	mv	a1,a4
    4e0a:	87ce                	mv	a5,s3
    4e0c:	b771                	j	4d98 <printInt+0x62>
    4e0e:	02d00713          	li	a4,45
    4e12:	fee98fa3          	sb	a4,-1(s3) # 1ffff <main.c.ab49d0c1+0x14997>
    4e16:	4401                	li	s0,0
    4e18:	ffe78993          	addi	s3,a5,-2
    4e1c:	bf55                	j	4dd0 <printInt+0x9a>
    4e1e:	defff0ef          	jal	ra,4c0c <printchar>
    4e22:	05800593          	li	a1,88
    4e26:	b7d9                	j	4dec <printInt+0xb6>

00004e28 <printLongLongInt>:
    4e28:	4501                	li	a0,0
    4e2a:	8082                	ret

00004e2c <printDouble>:
    4e2c:	4501                	li	a0,0
    4e2e:	8082                	ret

00004e30 <print>:
    4e30:	7139                	addi	sp,sp,-64
    4e32:	d05a                	sw	s6,32(sp)
    4e34:	6b19                	lui	s6,0x6
    4e36:	dc22                	sw	s0,56(sp)
    4e38:	da26                	sw	s1,52(sp)
    4e3a:	d84a                	sw	s2,48(sp)
    4e3c:	d64e                	sw	s3,44(sp)
    4e3e:	d452                	sw	s4,40(sp)
    4e40:	d256                	sw	s5,36(sp)
    4e42:	ce5e                	sw	s7,28(sp)
    4e44:	cc62                	sw	s8,24(sp)
    4e46:	de06                	sw	ra,60(sp)
    4e48:	ca66                	sw	s9,20(sp)
    4e4a:	89aa                	mv	s3,a0
    4e4c:	892e                	mv	s2,a1
    4e4e:	8432                	mv	s0,a2
    4e50:	4a01                	li	s4,0
    4e52:	4481                	li	s1,0
    4e54:	02500b93          	li	s7,37
    4e58:	02b00a93          	li	s5,43
    4e5c:	4c29                	li	s8,10
    4e5e:	d84b0b13          	addi	s6,s6,-636 # 5d84 <reason+0x1a0>
    4e62:	00090583          	lb	a1,0(s2)
    4e66:	e58d                	bnez	a1,4e90 <print+0x60>
    4e68:	00098663          	beqz	s3,4e74 <print+0x44>
    4e6c:	4581                	li	a1,0
    4e6e:	854e                	mv	a0,s3
    4e70:	d9dff0ef          	jal	ra,4c0c <printchar>
    4e74:	50f2                	lw	ra,60(sp)
    4e76:	5462                	lw	s0,56(sp)
    4e78:	8526                	mv	a0,s1
    4e7a:	5942                	lw	s2,48(sp)
    4e7c:	54d2                	lw	s1,52(sp)
    4e7e:	59b2                	lw	s3,44(sp)
    4e80:	5a22                	lw	s4,40(sp)
    4e82:	5a92                	lw	s5,36(sp)
    4e84:	5b02                	lw	s6,32(sp)
    4e86:	4bf2                	lw	s7,28(sp)
    4e88:	4c62                	lw	s8,24(sp)
    4e8a:	4cd2                	lw	s9,20(sp)
    4e8c:	6121                	addi	sp,sp,64
    4e8e:	8082                	ret
    4e90:	01758863          	beq	a1,s7,4ea0 <print+0x70>
    4e94:	854e                	mv	a0,s3
    4e96:	d77ff0ef          	jal	ra,4c0c <printchar>
    4e9a:	0485                	addi	s1,s1,1
    4e9c:	0905                	addi	s2,s2,1
    4e9e:	b7d1                	j	4e62 <print+0x32>
    4ea0:	00190783          	lb	a5,1(s2)
    4ea4:	00190c93          	addi	s9,s2,1
    4ea8:	01779a63          	bne	a5,s7,4ebc <print+0x8c>
    4eac:	02500593          	li	a1,37
    4eb0:	854e                	mv	a0,s3
    4eb2:	d5bff0ef          	jal	ra,4c0c <printchar>
    4eb6:	0485                	addi	s1,s1,1
    4eb8:	8966                	mv	s2,s9
    4eba:	b7cd                	j	4e9c <print+0x6c>
    4ebc:	d7d5                	beqz	a5,4e68 <print+0x38>
    4ebe:	05578763          	beq	a5,s5,4f0c <print+0xdc>
    4ec2:	00fac863          	blt	s5,a5,4ed2 <print+0xa2>
    4ec6:	02300713          	li	a4,35
    4eca:	04e78463          	beq	a5,a4,4f12 <print+0xe2>
    4ece:	4781                	li	a5,0
    4ed0:	a005                	j	4ef0 <print+0xc0>
    4ed2:	02d00713          	li	a4,45
    4ed6:	00e78a63          	beq	a5,a4,4eea <print+0xba>
    4eda:	03000713          	li	a4,48
    4ede:	fee798e3          	bne	a5,a4,4ece <print+0x9e>
    4ee2:	00290c93          	addi	s9,s2,2
    4ee6:	4789                	li	a5,2
    4ee8:	a021                	j	4ef0 <print+0xc0>
    4eea:	00290c93          	addi	s9,s2,2
    4eee:	4785                	li	a5,1
    4ef0:	000c8703          	lb	a4,0(s9) # 300000 <main.c.ab49d0c1+0x2f4998>
    4ef4:	05570363          	beq	a4,s5,4f3a <print+0x10a>
    4ef8:	02eac163          	blt	s5,a4,4f1a <print+0xea>
    4efc:	02300693          	li	a3,35
    4f00:	02d70b63          	beq	a4,a3,4f36 <print+0x106>
    4f04:	8966                	mv	s2,s9
    4f06:	4601                	li	a2,0
    4f08:	45a5                	li	a1,9
    4f0a:	a835                	j	4f46 <print+0x116>
    4f0c:	00290c93          	addi	s9,s2,2
    4f10:	bf7d                	j	4ece <print+0x9e>
    4f12:	00290c93          	addi	s9,s2,2
    4f16:	4791                	li	a5,4
    4f18:	bfe1                	j	4ef0 <print+0xc0>
    4f1a:	02d00693          	li	a3,45
    4f1e:	00d70963          	beq	a4,a3,4f30 <print+0x100>
    4f22:	03000693          	li	a3,48
    4f26:	fcd71fe3          	bne	a4,a3,4f04 <print+0xd4>
    4f2a:	0027e793          	ori	a5,a5,2
    4f2e:	a031                	j	4f3a <print+0x10a>
    4f30:	0c85                	addi	s9,s9,1
    4f32:	4785                	li	a5,1
    4f34:	bfc1                	j	4f04 <print+0xd4>
    4f36:	0047e793          	ori	a5,a5,4
    4f3a:	0c85                	addi	s9,s9,1
    4f3c:	b7e1                	j	4f04 <print+0xd4>
    4f3e:	03860633          	mul	a2,a2,s8
    4f42:	0905                	addi	s2,s2,1
    4f44:	9636                	add	a2,a2,a3
    4f46:	00090703          	lb	a4,0(s2)
    4f4a:	fd070693          	addi	a3,a4,-48
    4f4e:	0ff6f513          	zext.b	a0,a3
    4f52:	fea5f6e3          	bgeu	a1,a0,4f3e <print+0x10e>
    4f56:	02e00593          	li	a1,46
    4f5a:	4699                	li	a3,6
    4f5c:	00b71e63          	bne	a4,a1,4f78 <print+0x148>
    4f60:	0905                	addi	s2,s2,1
    4f62:	4681                	li	a3,0
    4f64:	45a5                	li	a1,9
    4f66:	00090703          	lb	a4,0(s2)
    4f6a:	fd070713          	addi	a4,a4,-48
    4f6e:	0ff77513          	zext.b	a0,a4
    4f72:	02a5f563          	bgeu	a1,a0,4f9c <print+0x16c>
    4f76:	8a36                	mv	s4,a3
    4f78:	00090703          	lb	a4,0(s2)
    4f7c:	06a00593          	li	a1,106
    4f80:	0ab70163          	beq	a4,a1,5022 <print+0x1f2>
    4f84:	02e5c163          	blt	a1,a4,4fa6 <print+0x176>
    4f88:	04c00593          	li	a1,76
    4f8c:	08b70b63          	beq	a4,a1,5022 <print+0x1f2>
    4f90:	06800593          	li	a1,104
    4f94:	08b70063          	beq	a4,a1,5014 <print+0x1e4>
    4f98:	4581                	li	a1,0
    4f9a:	a02d                	j	4fc4 <print+0x194>
    4f9c:	038686b3          	mul	a3,a3,s8
    4fa0:	0905                	addi	s2,s2,1
    4fa2:	96ba                	add	a3,a3,a4
    4fa4:	b7c9                	j	4f66 <print+0x136>
    4fa6:	07400593          	li	a1,116
    4faa:	06b70c63          	beq	a4,a1,5022 <print+0x1f2>
    4fae:	07a00593          	li	a1,122
    4fb2:	06b70863          	beq	a4,a1,5022 <print+0x1f2>
    4fb6:	06c00513          	li	a0,108
    4fba:	4581                	li	a1,0
    4fbc:	00a71463          	bne	a4,a0,4fc4 <print+0x194>
    4fc0:	0905                	addi	s2,s2,1
    4fc2:	4591                	li	a1,4
    4fc4:	00090703          	lb	a4,0(s2)
    4fc8:	06000513          	li	a0,96
    4fcc:	06100813          	li	a6,97
    4fd0:	00e54463          	blt	a0,a4,4fd8 <print+0x1a8>
    4fd4:	04100813          	li	a6,65
    4fd8:	06700513          	li	a0,103
    4fdc:	06e54063          	blt	a0,a4,503c <print+0x20c>
    4fe0:	06500513          	li	a0,101
    4fe4:	14a75563          	bge	a4,a0,512e <print+0x2fe>
    4fe8:	04700513          	li	a0,71
    4fec:	02e54d63          	blt	a0,a4,5026 <print+0x1f6>
    4ff0:	04500593          	li	a1,69
    4ff4:	12b75d63          	bge	a4,a1,512e <print+0x2fe>
    4ff8:	04300693          	li	a3,67
    4ffc:	ead710e3          	bne	a4,a3,4e9c <print+0x6c>
    5000:	4018                	lw	a4,0(s0)
    5002:	00440c93          	addi	s9,s0,4
    5006:	000106a3          	sb	zero,13(sp)
    500a:	8658                	sb	a4,12(sp)
    500c:	86be                	mv	a3,a5
    500e:	4701                	li	a4,0
    5010:	006c                	addi	a1,sp,12
    5012:	a041                	j	5092 <print+0x262>
    5014:	00190503          	lb	a0,1(s2)
    5018:	4581                	li	a1,0
    501a:	fae515e3          	bne	a0,a4,4fc4 <print+0x194>
    501e:	0909                	addi	s2,s2,2
    5020:	b755                	j	4fc4 <print+0x194>
    5022:	0905                	addi	s2,s2,1
    5024:	bf95                	j	4f98 <print+0x168>
    5026:	06300693          	li	a3,99
    502a:	fcd70be3          	beq	a4,a3,5000 <print+0x1d0>
    502e:	06e6c663          	blt	a3,a4,509a <print+0x26a>
    5032:	05800693          	li	a3,88
    5036:	02d70363          	beq	a4,a3,505c <print+0x22c>
    503a:	b58d                	j	4e9c <print+0x6c>
    503c:	07300693          	li	a3,115
    5040:	04d70163          	beq	a4,a3,5082 <print+0x252>
    5044:	02e6c863          	blt	a3,a4,5074 <print+0x244>
    5048:	06f00693          	li	a3,111
    504c:	0ad70e63          	beq	a4,a3,5108 <print+0x2d8>
    5050:	07000693          	li	a3,112
    5054:	0047e793          	ori	a5,a5,4
    5058:	e4d712e3          	bne	a4,a3,4e9c <print+0x6c>
    505c:	cdd9                	beqz	a1,50fa <print+0x2ca>
    505e:	041d                	addi	s0,s0,7
    5060:	ff847593          	andi	a1,s0,-8
    5064:	88c2                	mv	a7,a6
    5066:	00858413          	addi	s0,a1,8
    506a:	883e                	mv	a6,a5
    506c:	4701                	li	a4,0
    506e:	87b2                	mv	a5,a2
    5070:	46c1                	li	a3,16
    5072:	a83d                	j	50b0 <print+0x280>
    5074:	07500693          	li	a3,117
    5078:	06d70063          	beq	a4,a3,50d8 <print+0x2a8>
    507c:	07800693          	li	a3,120
    5080:	bf5d                	j	5036 <print+0x206>
    5082:	4018                	lw	a4,0(s0)
    5084:	00440c93          	addi	s9,s0,4
    5088:	85da                	mv	a1,s6
    508a:	c311                	beqz	a4,508e <print+0x25e>
    508c:	85ba                	mv	a1,a4
    508e:	8752                	mv	a4,s4
    5090:	86be                	mv	a3,a5
    5092:	854e                	mv	a0,s3
    5094:	bc3ff0ef          	jal	ra,4c56 <prints>
    5098:	a82d                	j	50d2 <print+0x2a2>
    509a:	c195                	beqz	a1,50be <print+0x28e>
    509c:	041d                	addi	s0,s0,7
    509e:	ff847593          	andi	a1,s0,-8
    50a2:	88c2                	mv	a7,a6
    50a4:	00858413          	addi	s0,a1,8
    50a8:	883e                	mv	a6,a5
    50aa:	4705                	li	a4,1
    50ac:	87b2                	mv	a5,a2
    50ae:	46a9                	li	a3,10
    50b0:	41d0                	lw	a2,4(a1)
    50b2:	418c                	lw	a1,0(a1)
    50b4:	854e                	mv	a0,s3
    50b6:	d73ff0ef          	jal	ra,4e28 <printLongLongInt>
    50ba:	94aa                	add	s1,s1,a0
    50bc:	b3c5                	j	4e9c <print+0x6c>
    50be:	00440c93          	addi	s9,s0,4
    50c2:	88d2                	mv	a7,s4
    50c4:	8732                	mv	a4,a2
    50c6:	4685                	li	a3,1
    50c8:	4629                	li	a2,10
    50ca:	400c                	lw	a1,0(s0)
    50cc:	854e                	mv	a0,s3
    50ce:	c69ff0ef          	jal	ra,4d36 <printInt>
    50d2:	94aa                	add	s1,s1,a0
    50d4:	8466                	mv	s0,s9
    50d6:	b3d9                	j	4e9c <print+0x6c>
    50d8:	c999                	beqz	a1,50ee <print+0x2be>
    50da:	041d                	addi	s0,s0,7
    50dc:	ff847593          	andi	a1,s0,-8
    50e0:	88c2                	mv	a7,a6
    50e2:	00858413          	addi	s0,a1,8
    50e6:	883e                	mv	a6,a5
    50e8:	4701                	li	a4,0
    50ea:	87b2                	mv	a5,a2
    50ec:	b7c9                	j	50ae <print+0x27e>
    50ee:	00440c93          	addi	s9,s0,4
    50f2:	88d2                	mv	a7,s4
    50f4:	8732                	mv	a4,a2
    50f6:	4681                	li	a3,0
    50f8:	bfc1                	j	50c8 <print+0x298>
    50fa:	8732                	mv	a4,a2
    50fc:	00440c93          	addi	s9,s0,4
    5100:	88d2                	mv	a7,s4
    5102:	4681                	li	a3,0
    5104:	4641                	li	a2,16
    5106:	b7d1                	j	50ca <print+0x29a>
    5108:	cd81                	beqz	a1,5120 <print+0x2f0>
    510a:	041d                	addi	s0,s0,7
    510c:	ff847593          	andi	a1,s0,-8
    5110:	88c2                	mv	a7,a6
    5112:	00858413          	addi	s0,a1,8
    5116:	883e                	mv	a6,a5
    5118:	4701                	li	a4,0
    511a:	87b2                	mv	a5,a2
    511c:	46a1                	li	a3,8
    511e:	bf49                	j	50b0 <print+0x280>
    5120:	8732                	mv	a4,a2
    5122:	00440c93          	addi	s9,s0,4
    5126:	88d2                	mv	a7,s4
    5128:	4681                	li	a3,0
    512a:	4621                	li	a2,8
    512c:	bf79                	j	50ca <print+0x29a>
    512e:	041d                	addi	s0,s0,7
    5130:	ff847593          	andi	a1,s0,-8
    5134:	00858413          	addi	s0,a1,8
    5138:	8732                	mv	a4,a2
    513a:	41d0                	lw	a2,4(a1)
    513c:	418c                	lw	a1,0(a1)
    513e:	88c2                	mv	a7,a6
    5140:	854e                	mv	a0,s3
    5142:	883e                	mv	a6,a5
    5144:	87b6                	mv	a5,a3
    5146:	46a9                	li	a3,10
    5148:	ce5ff0ef          	jal	ra,4e2c <printDouble>
    514c:	b7bd                	j	50ba <print+0x28a>

0000514e <printf>:
    514e:	7139                	addi	sp,sp,-64
    5150:	d22e                	sw	a1,36(sp)
    5152:	d432                	sw	a2,40(sp)
    5154:	85aa                	mv	a1,a0
    5156:	1050                	addi	a2,sp,36
    5158:	4501                	li	a0,0
    515a:	ce06                	sw	ra,28(sp)
    515c:	d636                	sw	a3,44(sp)
    515e:	d83a                	sw	a4,48(sp)
    5160:	da3e                	sw	a5,52(sp)
    5162:	dc42                	sw	a6,56(sp)
    5164:	de46                	sw	a7,60(sp)
    5166:	c632                	sw	a2,12(sp)
    5168:	cc9ff0ef          	jal	ra,4e30 <print>
    516c:	40f2                	lw	ra,28(sp)
    516e:	6121                	addi	sp,sp,64
    5170:	8082                	ret

00005172 <puts>:
    5172:	1101                	addi	sp,sp,-32
    5174:	cc22                	sw	s0,24(sp)
    5176:	ca26                	sw	s1,20(sp)
    5178:	ce06                	sw	ra,28(sp)
    517a:	211c                	lbu	a5,0(a0)
    517c:	84aa                	mv	s1,a0
    517e:	4401                	li	s0,0
    5180:	87dc                	sb	a5,15(sp)
    5182:	00f10783          	lb	a5,15(sp)
    5186:	0405                	addi	s0,s0,1
    5188:	ef99                	bnez	a5,51a6 <puts+0x34>
    518a:	47a9                	li	a5,10
    518c:	00f10593          	addi	a1,sp,15
    5190:	4605                	li	a2,1
    5192:	4501                	li	a0,0
    5194:	87dc                	sb	a5,15(sp)
    5196:	a27ff0ef          	jal	ra,4bbc <_write>
    519a:	8522                	mv	a0,s0
    519c:	40f2                	lw	ra,28(sp)
    519e:	4462                	lw	s0,24(sp)
    51a0:	44d2                	lw	s1,20(sp)
    51a2:	6105                	addi	sp,sp,32
    51a4:	8082                	ret
    51a6:	4605                	li	a2,1
    51a8:	00f10593          	addi	a1,sp,15
    51ac:	4501                	li	a0,0
    51ae:	a0fff0ef          	jal	ra,4bbc <_write>
    51b2:	008487b3          	add	a5,s1,s0
    51b6:	239c                	lbu	a5,0(a5)
    51b8:	87dc                	sb	a5,15(sp)
    51ba:	b7e1                	j	5182 <puts+0x10>

000051bc <memcpy>:
    51bc:	00b547b3          	xor	a5,a0,a1
    51c0:	8b8d                	andi	a5,a5,3
    51c2:	00c508b3          	add	a7,a0,a2
    51c6:	e7b1                	bnez	a5,5212 <memcpy+0x56>
    51c8:	478d                	li	a5,3
    51ca:	04c7f463          	bgeu	a5,a2,5212 <memcpy+0x56>
    51ce:	00357793          	andi	a5,a0,3
    51d2:	872a                	mv	a4,a0
    51d4:	ebb1                	bnez	a5,5228 <memcpy+0x6c>
    51d6:	ffc8f613          	andi	a2,a7,-4
    51da:	40e606b3          	sub	a3,a2,a4
    51de:	02000793          	li	a5,32
    51e2:	06d7c563          	blt	a5,a3,524c <memcpy+0x90>
    51e6:	86ae                	mv	a3,a1
    51e8:	87ba                	mv	a5,a4
    51ea:	02c77163          	bgeu	a4,a2,520c <memcpy+0x50>
    51ee:	0006a803          	lw	a6,0(a3) # e000e000 <_eusrstack+0xc0009000>
    51f2:	0791                	addi	a5,a5,4
    51f4:	0691                	addi	a3,a3,4
    51f6:	ff07ae23          	sw	a6,-4(a5)
    51fa:	fec7eae3          	bltu	a5,a2,51ee <memcpy+0x32>
    51fe:	fff60793          	addi	a5,a2,-1 # 40020fff <_eusrstack+0x2001bfff>
    5202:	8f99                	sub	a5,a5,a4
    5204:	9bf1                	andi	a5,a5,-4
    5206:	0791                	addi	a5,a5,4
    5208:	973e                	add	a4,a4,a5
    520a:	95be                	add	a1,a1,a5
    520c:	01176663          	bltu	a4,a7,5218 <memcpy+0x5c>
    5210:	8082                	ret
    5212:	872a                	mv	a4,a0
    5214:	03157b63          	bgeu	a0,a7,524a <memcpy+0x8e>
    5218:	219c                	lbu	a5,0(a1)
    521a:	0705                	addi	a4,a4,1
    521c:	0585                	addi	a1,a1,1
    521e:	fef70fa3          	sb	a5,-1(a4)
    5222:	fee89be3          	bne	a7,a4,5218 <memcpy+0x5c>
    5226:	8082                	ret
    5228:	2194                	lbu	a3,0(a1)
    522a:	0705                	addi	a4,a4,1
    522c:	00377793          	andi	a5,a4,3
    5230:	fed70fa3          	sb	a3,-1(a4)
    5234:	0585                	addi	a1,a1,1
    5236:	d3c5                	beqz	a5,51d6 <memcpy+0x1a>
    5238:	2194                	lbu	a3,0(a1)
    523a:	0705                	addi	a4,a4,1
    523c:	00377793          	andi	a5,a4,3
    5240:	fed70fa3          	sb	a3,-1(a4)
    5244:	0585                	addi	a1,a1,1
    5246:	f3ed                	bnez	a5,5228 <memcpy+0x6c>
    5248:	b779                	j	51d6 <memcpy+0x1a>
    524a:	8082                	ret
    524c:	1141                	addi	sp,sp,-16
    524e:	c622                	sw	s0,12(sp)
    5250:	02000413          	li	s0,32
    5254:	0005a383          	lw	t2,0(a1)
    5258:	0045a283          	lw	t0,4(a1)
    525c:	0085af83          	lw	t6,8(a1)
    5260:	00c5af03          	lw	t5,12(a1)
    5264:	0105ae83          	lw	t4,16(a1)
    5268:	0145ae03          	lw	t3,20(a1)
    526c:	0185a303          	lw	t1,24(a1)
    5270:	01c5a803          	lw	a6,28(a1)
    5274:	5194                	lw	a3,32(a1)
    5276:	02470713          	addi	a4,a4,36
    527a:	40e607b3          	sub	a5,a2,a4
    527e:	fc772e23          	sw	t2,-36(a4)
    5282:	fe572023          	sw	t0,-32(a4)
    5286:	fff72223          	sw	t6,-28(a4)
    528a:	ffe72423          	sw	t5,-24(a4)
    528e:	ffd72623          	sw	t4,-20(a4)
    5292:	ffc72823          	sw	t3,-16(a4)
    5296:	fe672a23          	sw	t1,-12(a4)
    529a:	ff072c23          	sw	a6,-8(a4)
    529e:	fed72e23          	sw	a3,-4(a4)
    52a2:	02458593          	addi	a1,a1,36
    52a6:	faf447e3          	blt	s0,a5,5254 <memcpy+0x98>
    52aa:	86ae                	mv	a3,a1
    52ac:	87ba                	mv	a5,a4
    52ae:	02c77163          	bgeu	a4,a2,52d0 <memcpy+0x114>
    52b2:	0006a803          	lw	a6,0(a3)
    52b6:	0791                	addi	a5,a5,4
    52b8:	0691                	addi	a3,a3,4
    52ba:	ff07ae23          	sw	a6,-4(a5)
    52be:	fec7eae3          	bltu	a5,a2,52b2 <memcpy+0xf6>
    52c2:	fff60793          	addi	a5,a2,-1
    52c6:	8f99                	sub	a5,a5,a4
    52c8:	9bf1                	andi	a5,a5,-4
    52ca:	0791                	addi	a5,a5,4
    52cc:	973e                	add	a4,a4,a5
    52ce:	95be                	add	a1,a1,a5
    52d0:	01176563          	bltu	a4,a7,52da <memcpy+0x11e>
    52d4:	4432                	lw	s0,12(sp)
    52d6:	0141                	addi	sp,sp,16
    52d8:	8082                	ret
    52da:	219c                	lbu	a5,0(a1)
    52dc:	0705                	addi	a4,a4,1
    52de:	0585                	addi	a1,a1,1
    52e0:	fef70fa3          	sb	a5,-1(a4)
    52e4:	fee888e3          	beq	a7,a4,52d4 <memcpy+0x118>
    52e8:	219c                	lbu	a5,0(a1)
    52ea:	0705                	addi	a4,a4,1
    52ec:	0585                	addi	a1,a1,1
    52ee:	fef70fa3          	sb	a5,-1(a4)
    52f2:	fee894e3          	bne	a7,a4,52da <memcpy+0x11e>
    52f6:	bff9                	j	52d4 <memcpy+0x118>
    52f8:	002c                	addi	a1,sp,8
    52fa:	0094                	addi	a3,sp,64
    52fc:	0780                	addi	s0,sp,960
    52fe:	0058                	addi	a4,sp,4
    5300:	0005                	c.nop	1
    5302:	0024                	addi	s1,sp,8
    5304:	0438                	addi	a4,sp,520
    5306:	0004                	.2byte	0x4
    5308:	0840                	addi	s0,sp,20
    530a:	003e                	c.slli	zero,0xf
    530c:	0898                	addi	a4,sp,80
    530e:	0465                	addi	s0,s0,25
    5310:	00c0                	addi	s0,sp,68
    5312:	0029                	c.nop	10
    5314:	0780                	addi	s0,sp,960
    5316:	0438                	addi	a4,sp,520
    5318:	802c                	lhu	a1,0(sp)
    531a:	8005                	srli	s0,s0,0x1
    531c:	7361                	lui	t1,0xffff8
    531e:	74726573          	csrrsi	a0,0x747,4
    5322:	6620                	.2byte	0x6620
    5324:	7561                	lui	a0,0xffff8
    5326:	746c                	.2byte	0x746c
    5328:	6120                	.2byte	0x6120
    532a:	2074                	lbu	a3,6(s0)
    532c:	696c                	.2byte	0x696c
    532e:	656e                	.2byte	0x656e
    5330:	2520                	lbu	s0,10(a0)
    5332:	2c64                	lbu	s1,30(s0)
    5334:	7220                	.2byte	0x7220
    5336:	6165                	addi	sp,sp,112
    5338:	206e6f73          	csrrsi	t5,0x206,28
    533c:	7325                	lui	t1,0xfffe9
    533e:	0a0d                	addi	s4,s4,3
    5340:	0000                	unimp
    5342:	0000                	unimp
    5344:	5044                	lw	s1,36(s0)
    5346:	4c20                	lw	s0,88(s0)
    5348:	6e69                	lui	t3,0x1a
    534a:	6e49206b          	.4byte	0x6e49206b
    534e:	6f66                	.2byte	0x6f66
    5350:	0d3a                	slli	s10,s10,0xe
    5352:	0000                	unimp
    5354:	6e65                	lui	t3,0x19
    5356:	6261                	lui	tp,0x18
    5358:	656c                	.2byte	0x656c
    535a:	3a64                	lbu	s1,23(a2)
    535c:	2520                	lbu	s0,10(a0)
    535e:	0d64                	addi	s1,sp,668
    5360:	000a                	c.slli	zero,0x2
    5362:	0000                	unimp
    5364:	6e6e6f63          	bltu	t3,t1,5a62 <memcpy+0x8a6>
    5368:	6365                	lui	t1,0x19
    536a:	6574                	.2byte	0x6574
    536c:	3a64                	lbu	s1,23(a2)
    536e:	2520                	lbu	s0,10(a0)
    5370:	0d64                	addi	s1,sp,668
    5372:	000a                	c.slli	zero,0x2
    5374:	6f6c                	.2byte	0x6f6c
    5376:	6f705f77          	.4byte	0x6f705f77
    537a:	3a726577          	.4byte	0x3a726577
    537e:	2520                	lbu	s0,10(a0)
    5380:	0d64                	addi	s1,sp,668
    5382:	000a                	c.slli	zero,0x2
    5384:	756d                	lui	a0,0xffffb
    5386:	746c                	.2byte	0x746c
    5388:	5f69                	li	t5,-6
    538a:	7566                	.2byte	0x7566
    538c:	636e                	.2byte	0x636e
    538e:	203a                	lhu	a4,2(s0)
    5390:	6425                	lui	s0,0x9
    5392:	0a0d                	addi	s4,s4,3
    5394:	0000                	unimp
    5396:	0000                	unimp
    5398:	7068                	.2byte	0x7068
    539a:	3a64                	lbu	s1,23(a2)
    539c:	2520                	lbu	s0,10(a0)
    539e:	0d64                	addi	s1,sp,668
    53a0:	000a                	c.slli	zero,0x2
    53a2:	0000                	unimp
    53a4:	7269                	lui	tp,0xffffa
    53a6:	3a71                	jal	4d42 <printInt+0xc>
    53a8:	2520                	lbu	s0,10(a0)
    53aa:	0d64                	addi	s1,sp,668
    53ac:	000a                	c.slli	zero,0x2
    53ae:	0000                	unimp
    53b0:	7375                	lui	t1,0xffffd
    53b2:	5f62                	lw	t5,56(sp)
    53b4:	6572                	.2byte	0x6572
    53b6:	3a71                	jal	4d52 <printInt+0x1c>
    53b8:	2520                	lbu	s0,10(a0)
    53ba:	0d64                	addi	s1,sp,668
    53bc:	000a                	c.slli	zero,0x2
    53be:	0000                	unimp
    53c0:	7865                	lui	a6,0xffff9
    53c2:	7469                	lui	s0,0xffffa
    53c4:	725f 7165 203a      	.byte	0x5f, 0x72, 0x65, 0x71, 0x3a, 0x20
    53ca:	6425                	lui	s0,0x9
    53cc:	0a0d                	addi	s4,s4,3
    53ce:	0000                	unimp
    53d0:	0046464f          	.4byte	0x46464f
    53d4:	6f54                	.2byte	0x6f54
    53d6:	656c6767          	.4byte	0x656c6767
    53da:	5620                	lw	s0,104(a2)
    53dc:	4e4e4f43          	.4byte	0x4e4e4f43
    53e0:	2520                	lbu	s0,10(a0)
    53e2:	000a0d73          	.4byte	0xa0d73
    53e6:	0000                	unimp
    53e8:	6f54                	.2byte	0x6f54
    53ea:	656c6767          	.4byte	0x656c6767
    53ee:	5620                	lw	s0,104(a2)
    53f0:	5542                	lw	a0,48(sp)
    53f2:	73252053          	.4byte	0x73252053
    53f6:	0a0d                	addi	s4,s4,3
    53f8:	0000                	unimp
    53fa:	0000                	unimp
    53fc:	4450                	lw	a2,12(s0)
    53fe:	4420                	lw	s0,72(s0)
    5400:	7369                	lui	t1,0xffffa
    5402:	6e6e6f63          	bltu	t3,t1,5b00 <memcpy+0x944>
    5406:	6365                	lui	t1,0x19
    5408:	0d74                	addi	a3,sp,668
    540a:	0000                	unimp
    540c:	4450                	lw	a2,12(s0)
    540e:	4320                	lw	s0,64(a4)
    5410:	656e6e6f          	jal	t3,eba66 <main.c.ab49d0c1+0xe03fe>
    5414:	61207463          	bgeu	zero,s2,5a1c <memcpy+0x860>
    5418:	2074                	lbu	a3,6(s0)
    541a:	64254343          	.4byte	0x64254343
    541e:	0a0d                	addi	s4,s4,3
    5420:	0000                	unimp
    5422:	0000                	unimp
    5424:	00004e4f          	.4byte	0x4e4f
    5428:	6142                	.2byte	0x6142
    542a:	2064                	lbu	s1,6(s0)
    542c:	4356                	lw	t1,84(sp)
    542e:	204e4e4f          	.4byte	0x204e4e4f
    5432:	6f54                	.2byte	0x6f54
    5434:	656c6767          	.4byte	0x656c6767
    5438:	5020                	lw	s0,96(s0)
    543a:	6e69                	lui	t3,0x1a
    543c:	0000                	unimp
    543e:	0000                	unimp
    5440:	6e41                	lui	t3,0x10
    5442:	7520                	.2byte	0x7520
    5444:	656e                	.2byte	0x656e
    5446:	7078                	.2byte	0x7078
    5448:	6365                	lui	t1,0x19
    544a:	6574                	.2byte	0x6574
    544c:	2064                	lbu	s1,6(s0)
    544e:	7865                	lui	a6,0xffff9
    5450:	74706563          	bltu	zero,t2,5b9a <memcpy+0x9de>
    5454:	6f69                	lui	t5,0x1a
    5456:	206e                	lhu	a1,6(s0)
    5458:	20736177          	.4byte	0x20736177
    545c:	7563636f          	jal	t1,3bbb2 <main.c.ab49d0c1+0x3054a>
    5460:	6572                	.2byte	0x6572
    5462:	2064                	lbu	s1,6(s0)
    5464:	7461                	lui	s0,0xffff8
    5466:	3020                	lbu	s0,3(s0)
    5468:	2578                	lbu	a4,14(a0)
    546a:	3830                	lbu	a2,19(s0)
    546c:	0d78                	addi	a4,sp,668
    546e:	000a                	c.slli	zero,0x2
    5470:	746d                	lui	s0,0xffffb
    5472:	6176                	.2byte	0x6176
    5474:	3a6c                	lbu	a1,23(a2)
    5476:	3020                	lbu	s0,3(s0)
    5478:	2578                	lbu	a4,14(a0)
    547a:	3830                	lbu	a2,19(s0)
    547c:	0d78                	addi	a4,sp,668
    547e:	000a                	c.slli	zero,0x2
    5480:	7265                	lui	tp,0xffff9
    5482:	6e72                	.2byte	0x6e72
    5484:	6425206f          	j	57ac6 <main.c.ab49d0c1+0x4c45e>
    5488:	203a                	lhu	a4,2(s0)
    548a:	7325                	lui	t1,0xfffe9
    548c:	0a0d                	addi	s4,s4,3
    548e:	0000                	unimp
    5490:	6572                	.2byte	0x6572
    5492:	74736967          	.4byte	0x74736967
    5496:	7265                	lui	tp,0xffff9
    5498:	0d3a                	slli	s10,s10,0xe
    549a:	0000                	unimp
    549c:	6172                	.2byte	0x6172
    549e:	203a                	lhu	a4,2(s0)
    54a0:	7830                	.2byte	0x7830
    54a2:	3025                	jal	4cca <prints+0x74>
    54a4:	7838                	.2byte	0x7838
    54a6:	0a0d                	addi	s4,s4,3
    54a8:	0000                	unimp
    54aa:	0000                	unimp
    54ac:	203a7073          	csrci	0x203,20
    54b0:	7830                	.2byte	0x7830
    54b2:	3025                	jal	4cda <prints+0x84>
    54b4:	7838                	.2byte	0x7838
    54b6:	0a0d                	addi	s4,s4,3
    54b8:	0000                	unimp
    54ba:	0000                	unimp
    54bc:	7845                	lui	a6,0xffff1
    54be:	7469                	lui	s0,0xffffa
    54c0:	5320                	lw	s0,96(a4)
    54c2:	504c                	lw	a1,36(s0)
    54c4:	4d20                	lw	s0,88(a0)
    54c6:	0d65646f          	jal	s0,5b59c <main.c.ab49d0c1+0x4ff34>
    54ca:	0000                	unimp
    54cc:	5355                	li	t1,-11
    54ce:	5042                	.2byte	0x5042
    54d0:	2044                	lbu	s1,4(s0)
    54d2:	5249                	li	tp,-14
    54d4:	2051                	jal	5558 <memcpy+0x39c>
    54d6:	6148                	.2byte	0x6148
    54d8:	646e                	.2byte	0x646e
    54da:	656c                	.2byte	0x656c
    54dc:	2072                	lhu	a2,6(s0)
    54de:	554e                	lw	a0,240(sp)
    54e0:	4c4c                	lw	a1,28(s0)
    54e2:	5020                	lw	s0,96(s0)
    54e4:	746e696f          	jal	s2,ebc2a <main.c.ab49d0c1+0xe05c2>
    54e8:	7265                	lui	tp,0xffff9
    54ea:	4520                	lw	s0,72(a0)
    54ec:	6378                	.2byte	0x6378
    54ee:	7065                	c.lui	zero,0xffff9
    54f0:	6974                	.2byte	0x6974
    54f2:	00006e6f          	jal	t3,b4f2 <iic.c.f7656db2+0x221>
    54f6:	0000                	unimp
    54f8:	2041                	jal	5578 <memcpy+0x3bc>
    54fa:	6e75                	lui	t3,0x1d
    54fc:	7865                	lui	a6,0xffff9
    54fe:	6570                	.2byte	0x6570
    5500:	64657463          	bgeu	a0,t1,5b48 <memcpy+0x98c>
    5504:	4820                	lw	s0,80(s0)
    5506:	7261                	lui	tp,0xffff8
    5508:	2064                	lbu	s1,6(s0)
    550a:	6552                	.2byte	0x6552
    550c:	20746573          	csrrsi	a0,0x207,8
    5510:	20736177          	.4byte	0x20736177
    5514:	7563636f          	jal	t1,3bc6a <main.c.ab49d0c1+0x30602>
    5518:	6572                	.2byte	0x6572
    551a:	2064                	lbu	s1,6(s0)
    551c:	7266                	.2byte	0x7266
    551e:	55206d6f          	jal	s10,ba70 <main.c.ab49d0c1+0x408>
    5522:	5046                	.2byte	0x5046
    5524:	000d                	c.nop	3
    5526:	0000                	unimp
    5528:	6f4e                	.2byte	0x6f4e
    552a:	6d72                	.2byte	0x6d72
    552c:	6c61                	lui	s8,0x18
    552e:	0000                	unimp
    5530:	6c46                	.2byte	0x6c46
    5532:	7069                	c.lui	zero,0xffffa
    5534:	0000                	unimp
    5536:	0000                	unimp
    5538:	20535953          	.4byte	0x20535953
    553c:	5750                	lw	a2,44(a4)
    553e:	2052                	lhu	a2,4(s0)
    5540:	000d4e4f          	.4byte	0xd4e4f
    5544:	6e45                	lui	t3,0x11
    5546:	6261                	lui	tp,0x18
    5548:	656c                	.2byte	0x656c
    554a:	4420                	lw	s0,72(s0)
    554c:	6265                	lui	tp,0x19
    554e:	6775                	lui	a4,0x1d
    5550:	000d                	c.nop	3
    5552:	0000                	unimp
    5554:	2e30                	lbu	a2,26(a2)
    5556:	0032                	c.slli	zero,0xc
    5558:	6470                	.2byte	0x6470
    555a:	6c61                	lui	s8,0x18
    555c:	6d74                	.2byte	0x6d74
    555e:	2065646f          	jal	s0,5b764 <main.c.ab49d0c1+0x500fc>
    5562:	6576                	.2byte	0x6576
    5564:	7372                	.2byte	0x7372
    5566:	6f69                	lui	t5,0x1a
    5568:	206e                	lhu	a1,6(s0)
    556a:	7325                	lui	t1,0xfffe9
    556c:	6220                	.2byte	0x6220
    556e:	2079                	jal	55fc <memcpy+0x440>
    5570:	6e41                	lui	t3,0x10
    5572:	6574                	.2byte	0x6574
    5574:	0d72                	slli	s10,s10,0x1c
    5576:	000a                	c.slli	zero,0x2
    5578:	614d                	addi	sp,sp,176
    557a:	2072                	lhu	a2,6(s0)
    557c:	3431                	jal	4f88 <print+0x158>
    557e:	3220                	lbu	s0,3(a2)
    5580:	3230                	lbu	a2,3(a2)
    5582:	0035                	c.nop	13
    5584:	3231                	jal	4e90 <print+0x60>
    5586:	322e                	lhu	a1,34(a2)
    5588:	302e                	lhu	a1,34(s0)
    558a:	0000                	unimp
    558c:	00636367          	.4byte	0x636367
    5590:	7325                	lui	t1,0xfffe9
    5592:	2520                	lbu	s0,10(a0)
    5594:	73252073          	csrs	0x732,a0
    5598:	0a0d                	addi	s4,s4,3
    559a:	0000                	unimp
    559c:	5f737973          	csrrci	s2,0x5f7,6
    55a0:	3a6b6c63          	bltu	s6,t1,5958 <memcpy+0x79c>
    55a4:	2520                	lbu	s0,10(a0)
    55a6:	0d64                	addi	s1,sp,668
    55a8:	000a                	c.slli	zero,0x2
    55aa:	0000                	unimp
    55ac:	70696863          	bltu	s2,t1,5cbc <reason+0xd8>
    55b0:	695f 3a64 3020      	.byte	0x5f, 0x69, 0x64, 0x3a, 0x20, 0x30
    55b6:	2578                	lbu	a4,14(a0)
    55b8:	3830                	lbu	a2,19(s0)
    55ba:	0d78                	addi	a4,sp,668
    55bc:	000a                	c.slli	zero,0x2
    55be:	0000                	unimp
    55c0:	6e45                	lui	t3,0x11
    55c2:	6261                	lui	tp,0x18
    55c4:	656c                	.2byte	0x656c
    55c6:	4720                	lw	s0,72(a4)
    55c8:	4950                	lw	a2,20(a0)
    55ca:	00000d4f          	.4byte	0xd4f
    55ce:	0000                	unimp
    55d0:	6e45                	lui	t3,0x11
    55d2:	6261                	lui	tp,0x18
    55d4:	656c                	.2byte	0x656c
    55d6:	4920                	lw	s0,80(a0)
    55d8:	4349                	li	t1,18
    55da:	000d                	c.nop	3
    55dc:	6552                	.2byte	0x6552
    55de:	20746573          	csrrsi	a0,0x207,8
    55e2:	504d                	c.li	zero,-13
    55e4:	0d44                	addi	s1,sp,660
    55e6:	0000                	unimp
    55e8:	706d                	c.lui	zero,0xffffb
    55ea:	5f64                	lw	s1,124(a4)
    55ec:	6469                	lui	s0,0x1a
    55ee:	203a                	lhu	a4,2(s0)
    55f0:	7830                	.2byte	0x7830
    55f2:	3025                	jal	4e1a <printInt+0xe4>
    55f4:	7834                	.2byte	0x7834
    55f6:	0a0d                	addi	s4,s4,3
    55f8:	0000                	unimp
    55fa:	0000                	unimp
    55fc:	706d                	c.lui	zero,0xffffb
    55fe:	5f64                	lw	s1,124(a4)
    5600:	6970                	.2byte	0x6970
    5602:	3a6e                	lhu	a1,54(a2)
    5604:	3020                	lbu	s0,3(s0)
    5606:	2578                	lbu	a4,14(a0)
    5608:	3230                	lbu	a2,3(a2)
    560a:	0d78                	addi	a4,sp,668
    560c:	000a                	c.slli	zero,0x2
    560e:	0000                	unimp
    5610:	6e45                	lui	t3,0x11
    5612:	6261                	lui	tp,0x18
    5614:	656c                	.2byte	0x656c
    5616:	4d20                	lw	s0,88(a0)
    5618:	4450                	lw	a2,12(s0)
    561a:	5020                	lw	s0,96(s0)
    561c:	4c4c                	lw	a1,28(s0)
    561e:	000d                	c.nop	3
    5620:	6e45                	lui	t3,0x11
    5622:	6261                	lui	tp,0x18
    5624:	656c                	.2byte	0x656c
    5626:	4d20                	lw	s0,88(a0)
    5628:	4450                	lw	a2,12(s0)
    562a:	4620                	lw	s0,72(a2)
    562c:	6e75                	lui	t3,0x1d
    562e:	00000d63          	beqz	zero,5648 <memcpy+0x48c>
    5632:	0000                	unimp
    5634:	504d                	c.li	zero,-13
    5636:	2044                	lbu	s1,4(s0)
    5638:	6552                	.2byte	0x6552
    563a:	6461                	lui	s0,0x18
    563c:	0d79                	addi	s10,s10,30
    563e:	0000                	unimp
    5640:	6e45                	lui	t3,0x11
    5642:	6261                	lui	tp,0x18
    5644:	656c                	.2byte	0x656c
    5646:	4120                	lw	s0,64(a0)
    5648:	4344                	lw	s1,4(a4)
    564a:	000d                	c.nop	3
    564c:	6e45                	lui	t3,0x11
    564e:	6261                	lui	tp,0x18
    5650:	656c                	.2byte	0x656c
    5652:	5520                	lw	s0,104(a0)
    5654:	44504253          	.4byte	0x44504253
    5658:	000d                	c.nop	3
    565a:	0000                	unimp
    565c:	6e45                	lui	t3,0x11
    565e:	6261                	lui	tp,0x18
    5660:	656c                	.2byte	0x656c
    5662:	5520                	lw	s0,104(a0)
    5664:	44504253          	.4byte	0x44504253
    5668:	5420                	lw	s0,104(s0)
    566a:	6d69                	lui	s10,0x1a
    566c:	7265                	lui	tp,0xffff9
    566e:	000d                	c.nop	3
    5670:	6e45                	lui	t3,0x11
    5672:	6574                	.2byte	0x6574
    5674:	2072                	lhu	a2,6(s0)
    5676:	20504c53          	.4byte	0x20504c53
    567a:	6f4d                	lui	t5,0x13
    567c:	6564                	.2byte	0x6564
    567e:	000d                	c.nop	3
    5680:	6276                	.2byte	0x6276
    5682:	7375                	lui	t1,0xffffd
    5684:	6d5f 6f76 746c      	.byte	0x5f, 0x6d, 0x76, 0x6f, 0x6c, 0x74
    568a:	25203a73          	csrrc	s4,0x252,zero
    568e:	3430                	lbu	a2,11(s0)
    5690:	0d64                	addi	s1,sp,668
    5692:	000a                	c.slli	zero,0x2
    5694:	4450                	lw	a2,12(s0)
    5696:	6e20                	.2byte	0x6e20
    5698:	6765                	lui	a4,0x19
    569a:	6169746f          	jal	s0,9ccb0 <main.c.ab49d0c1+0x91648>
    569e:	6974                	.2byte	0x6974
    56a0:	66206e6f          	jal	t3,bd02 <main.c.ab49d0c1+0x69a>
    56a4:	6e69                	lui	t3,0x1a
    56a6:	7369                	lui	t1,0xffffa
    56a8:	6568                	.2byte	0x6568
    56aa:	0d64                	addi	s1,sp,668
    56ac:	0000                	unimp
    56ae:	0000                	unimp
    56b0:	6544                	.2byte	0x6544
    56b2:	6976                	.2byte	0x6976
    56b4:	64206563          	bltu	zero,sp,5cfe <reason+0x11a>
    56b8:	6e73656f          	jal	a0,3c59e <main.c.ab49d0c1+0x30f36>
    56bc:	73207427          	.4byte	0x73207427
    56c0:	7075                	c.lui	zero,0xffffd
    56c2:	6f70                	.2byte	0x6f70
    56c4:	7472                	.2byte	0x7472
    56c6:	5620                	lw	s0,104(a2)
    56c8:	4d44                	lw	s1,28(a0)
    56ca:	000d                	c.nop	3
    56cc:	4456                	lw	s0,84(sp)
    56ce:	204d                	jal	5770 <memcpy+0x5b4>
    56d0:	6e49                	lui	t3,0x12
    56d2:	6f66                	.2byte	0x6f66
    56d4:	0d3a                	slli	s10,s10,0xe
    56d6:	0000                	unimp
    56d8:	4956                	lw	s2,84(sp)
    56da:	3a44                	lbu	s1,21(a2)
    56dc:	3020                	lbu	s0,3(s0)
    56de:	2578                	lbu	a4,14(a0)
    56e0:	3430                	lbu	a2,11(s0)
    56e2:	0d78                	addi	a4,sp,668
    56e4:	000a                	c.slli	zero,0x2
    56e6:	0000                	unimp
    56e8:	4950                	lw	a2,20(a0)
    56ea:	3a44                	lbu	s1,21(a2)
    56ec:	3020                	lbu	s0,3(s0)
    56ee:	2578                	lbu	a4,14(a0)
    56f0:	3430                	lbu	a2,11(s0)
    56f2:	0d78                	addi	a4,sp,668
    56f4:	000a                	c.slli	zero,0x2
    56f6:	0000                	unimp
    56f8:	6362                	.2byte	0x6362
    56fa:	3a64                	lbu	s1,23(a2)
    56fc:	3020                	lbu	s0,3(s0)
    56fe:	2578                	lbu	a4,14(a0)
    5700:	3430                	lbu	a2,11(s0)
    5702:	0d78                	addi	a4,sp,668
    5704:	000a                	c.slli	zero,0x2
    5706:	0000                	unimp
    5708:	7270                	.2byte	0x7270
    570a:	745f646f          	jal	s0,fc64e <main.c.ab49d0c1+0xf0fe6>
    570e:	7079                	c.lui	zero,0xffffe
    5710:	3a65                	jal	50c8 <print+0x298>
    5712:	2520                	lbu	s0,10(a0)
    5714:	0d64                	addi	s1,sp,668
    5716:	000a                	c.slli	zero,0x2
    5718:	7369                	lui	t1,0xffffa
    571a:	615f 616d 203a      	.byte	0x5f, 0x61, 0x6d, 0x61, 0x3a, 0x20
    5720:	6425                	lui	s0,0x9
    5722:	0a0d                	addi	s4,s4,3
    5724:	0000                	unimp
    5726:	0000                	unimp
    5728:	7375                	lui	t1,0xffffd
    572a:	5f62                	lw	t5,56(sp)
    572c:	6f68                	.2byte	0x6f68
    572e:	203a7473          	csrrci	s0,0x203,20
    5732:	6425                	lui	s0,0x9
    5734:	0a0d                	addi	s4,s4,3
    5736:	0000                	unimp
    5738:	7375                	lui	t1,0xffffd
    573a:	5f62                	lw	t5,56(sp)
    573c:	6564                	.2byte	0x6564
    573e:	6976                	.2byte	0x6976
    5740:	203a6563          	bltu	s4,gp,594a <memcpy+0x78e>
    5744:	6425                	lui	s0,0x9
    5746:	0a0d                	addi	s4,s4,3
    5748:	0000                	unimp
    574a:	0000                	unimp
    574c:	6f6d                	lui	t5,0x1b
    574e:	6164                	.2byte	0x6164
    5750:	3a6c                	lbu	a1,23(a2)
    5752:	2520                	lbu	s0,10(a0)
    5754:	0d64                	addi	s1,sp,668
    5756:	000a                	c.slli	zero,0x2
    5758:	6978                	.2byte	0x6978
    575a:	3a64                	lbu	s1,23(a2)
    575c:	3020                	lbu	s0,3(s0)
    575e:	2578                	lbu	a4,14(a0)
    5760:	3830                	lbu	a2,19(s0)
    5762:	0d78                	addi	a4,sp,668
    5764:	000a                	c.slli	zero,0x2
    5766:	0000                	unimp
    5768:	4d41                	li	s10,16
    576a:	2041                	jal	57ea <memcpy+0x62e>
    576c:	6e49                	lui	t3,0x12
    576e:	6f66                	.2byte	0x6f66
    5770:	0d3a                	slli	s10,s10,0xe
    5772:	0000                	unimp
    5774:	7768                	.2byte	0x7768
    5776:	765f 7265 203a      	.byte	0x5f, 0x76, 0x65, 0x72, 0x3a, 0x20
    577c:	7830                	.2byte	0x7830
    577e:	3025                	jal	4fa6 <print+0x176>
    5780:	7834                	.2byte	0x7834
    5782:	0a0d                	addi	s4,s4,3
    5784:	0000                	unimp
    5786:	0000                	unimp
    5788:	7766                	.2byte	0x7766
    578a:	765f 7265 203a      	.byte	0x5f, 0x76, 0x65, 0x72, 0x3a, 0x20
    5790:	7830                	.2byte	0x7830
    5792:	3025                	jal	4fba <print+0x18a>
    5794:	7834                	.2byte	0x7834
    5796:	0a0d                	addi	s4,s4,3
    5798:	0000                	unimp
    579a:	0000                	unimp
    579c:	6276                	.2byte	0x6276
    579e:	7375                	lui	t1,0xffffd
    57a0:	725f 7165 203a      	.byte	0x5f, 0x72, 0x65, 0x71, 0x3a, 0x20
    57a6:	6425                	lui	s0,0x9
    57a8:	0a0d                	addi	s4,s4,3
    57aa:	0000                	unimp
    57ac:	6376                	.2byte	0x6376
    57ae:	5f6e6e6f          	jal	t3,ebda4 <main.c.ab49d0c1+0xe073c>
    57b2:	6572                	.2byte	0x6572
    57b4:	3a71                	jal	5150 <printf+0x2>
    57b6:	2520                	lbu	s0,10(a0)
    57b8:	0d64                	addi	s1,sp,668
    57ba:	000a                	c.slli	zero,0x2
    57bc:	6376                	.2byte	0x6376
    57be:	5f6e6e6f          	jal	t3,ebdb4 <main.c.ab49d0c1+0xe074c>
    57c2:	74746177          	.4byte	0x74746177
    57c6:	203a                	lhu	a4,2(s0)
    57c8:	6425                	lui	s0,0x9
    57ca:	0a0d                	addi	s4,s4,3
    57cc:	0000                	unimp
    57ce:	0000                	unimp
    57d0:	7375                	lui	t1,0xffffd
    57d2:	7362                	.2byte	0x7362
    57d4:	69735f73          	csrrwi	t5,0x697,6
    57d8:	25203a67          	.4byte	0x25203a67
    57dc:	0d64                	addi	s1,sp,668
    57de:	000a                	c.slli	zero,0x2
    57e0:	7375                	lui	t1,0xffffd
    57e2:	7362                	.2byte	0x7362
    57e4:	69645f73          	csrrwi	t5,0x696,8
    57e8:	3a72                	lhu	a2,54(a2)
    57ea:	3020                	lbu	s0,3(s0)
    57ec:	2578                	lbu	a4,14(a0)
    57ee:	3230                	lbu	a2,3(a2)
    57f0:	0d78                	addi	a4,sp,668
    57f2:	000a                	c.slli	zero,0x2
    57f4:	6544                	.2byte	0x6544
    57f6:	6976                	.2byte	0x6976
    57f8:	64206563          	bltu	zero,sp,5e42 <_data_lma+0xb6>
    57fc:	6e73656f          	jal	a0,3c6e2 <main.c.ab49d0c1+0x3107a>
    5800:	73207427          	.4byte	0x73207427
    5804:	7075                	c.lui	zero,0xffffd
    5806:	6f70                	.2byte	0x6f70
    5808:	7472                	.2byte	0x7472
    580a:	4d20                	lw	s0,88(a0)
    580c:	6c61646f          	jal	s0,1bed2 <main.c.ab49d0c1+0x1086a>
    5810:	4f20                	lw	s0,88(a4)
    5812:	6570                	.2byte	0x6570
    5814:	6172                	.2byte	0x6172
    5816:	6974                	.2byte	0x6974
    5818:	000d6e6f          	jal	t3,db818 <main.c.ab49d0c1+0xd01b0>
    581c:	6544                	.2byte	0x6544
    581e:	6976                	.2byte	0x6976
    5820:	64206563          	bltu	zero,sp,5e6a <_data_lma+0xde>
    5824:	6e73656f          	jal	a0,3c70a <main.c.ab49d0c1+0x310a2>
    5828:	63207427          	.4byte	0x63207427
    582c:	61746e6f          	jal	t3,4c642 <main.c.ab49d0c1+0x40fda>
    5830:	6e69                	lui	t3,0x1a
    5832:	6120                	.2byte	0x6120
    5834:	796e                	.2byte	0x796e
    5836:	5320                	lw	s0,96(a4)
    5838:	4956                	lw	s2,84(sp)
    583a:	0d44                	addi	s1,sp,660
    583c:	0000                	unimp
    583e:	0000                	unimp
    5840:	6544                	.2byte	0x6544
    5842:	6976                	.2byte	0x6976
    5844:	64206563          	bltu	zero,sp,5e8e <_data_lma+0x102>
    5848:	6e73656f          	jal	a0,3c72e <main.c.ab49d0c1+0x310c6>
    584c:	73207427          	.4byte	0x73207427
    5850:	7075                	c.lui	zero,0xffffd
    5852:	6f70                	.2byte	0x6f70
    5854:	7472                	.2byte	0x7472
    5856:	4420                	lw	s0,72(s0)
    5858:	7369                	lui	t1,0xffffa
    585a:	6c70                	.2byte	0x6c70
    585c:	7961                	lui	s2,0xffff8
    585e:	6f50                	.2byte	0x6f50
    5860:	7472                	.2byte	0x7472
    5862:	000d                	c.nop	3
    5864:	4f4d                	li	t5,19
    5866:	4544                	lw	s1,12(a0)
    5868:	2520                	lbu	s0,10(a0)
    586a:	3a64                	lbu	s1,23(a2)
    586c:	0a0d                	addi	s4,s4,3
    586e:	0000                	unimp
    5870:	61706163          	bltu	zero,s7,5e72 <_data_lma+0xe6>
    5874:	6962                	.2byte	0x6962
    5876:	696c                	.2byte	0x696c
    5878:	7974                	.2byte	0x7974
    587a:	203a                	lhu	a4,2(s0)
    587c:	6425                	lui	s0,0x9
    587e:	0a0d                	addi	s4,s4,3
    5880:	0000                	unimp
    5882:	0000                	unimp
    5884:	6572                	.2byte	0x6572
    5886:	74706563          	bltu	zero,t2,5fd0 <_data_lma+0x244>
    588a:	6261                	lui	tp,0x18
    588c:	656c                	.2byte	0x656c
    588e:	203a                	lhu	a4,2(s0)
    5890:	6425                	lui	s0,0x9
    5892:	0a0d                	addi	s4,s4,3
    5894:	0000                	unimp
    5896:	0000                	unimp
    5898:	70707573          	csrrci	a0,0x707,0
    589c:	6574726f          	jal	tp,4d6f2 <main.c.ab49d0c1+0x4208a>
    58a0:	5f64                	lw	s1,124(a4)
    58a2:	6970                	.2byte	0x6970
    58a4:	3a6e                	lhu	a1,54(a2)
    58a6:	3020                	lbu	s0,3(s0)
    58a8:	2578                	lbu	a4,14(a0)
    58aa:	3230                	lbu	a2,3(a2)
    58ac:	0d78                	addi	a4,sp,668
    58ae:	000a                	c.slli	zero,0x2
    58b0:	5044                	lw	s1,36(s0)
    58b2:	4d20                	lw	s0,88(a0)
    58b4:	2045444f          	.4byte	0x2045444f
    58b8:	6425                	lui	s0,0x9
    58ba:	6920                	.2byte	0x6920
    58bc:	73752073          	csrs	0x737,a0
    58c0:	6465                	lui	s0,0x19
    58c2:	0a0d                	addi	s4,s4,3
    58c4:	0000                	unimp
    58c6:	0000                	unimp
    58c8:	6544                	.2byte	0x6544
    58ca:	6976                	.2byte	0x6976
    58cc:	6e206563          	bltu	zero,sp,5fb6 <_data_lma+0x22a>
    58d0:	6320746f          	jal	s0,cf02 <main.c.ab49d0c1+0x189a>
    58d4:	7061                	c.lui	zero,0xffff8
    58d6:	6261                	lui	tp,0x18
    58d8:	656c                	.2byte	0x656c
    58da:	6f20                	.2byte	0x6f20
    58dc:	2066                	lhu	s1,6(s0)
    58de:	4655                	li	a2,21
    58e0:	5f50                	lw	a2,60(a4)
    58e2:	0d44                	addi	s1,sp,660
    58e4:	0000                	unimp
    58e6:	0000                	unimp
    58e8:	6d45                	lui	s10,0x11
    58ea:	7470                	.2byte	0x7470
    58ec:	2079                	jal	597a <memcpy+0x7be>
    58ee:	4456                	lw	s0,84(sp)
    58f0:	6f50204f          	.4byte	0x6f50204f
    58f4:	00000073          	ecall
    58f8:	6544                	.2byte	0x6544
    58fa:	6976                	.2byte	0x6976
    58fc:	72206563          	bltu	zero,sp,6026 <_data_lma+0x29a>
    5900:	6665                	lui	a2,0x19
    5902:	7375                	lui	t1,0xffffd
    5904:	6465                	lui	s0,0x19
    5906:	7420                	.2byte	0x7420
    5908:	6e65206f          	j	57fee <main.c.ab49d0c1+0x4c986>
    590c:	6574                	.2byte	0x6574
    590e:	2072                	lhu	a2,6(s0)
    5910:	5044                	lw	s1,36(s0)
    5912:	4120                	lw	s0,64(a0)
    5914:	746c                	.2byte	0x746c
    5916:	6d2d                	lui	s10,0xb
    5918:	2065646f          	jal	s0,5bb1e <main.c.ab49d0c1+0x504b6>
    591c:	7564                	.2byte	0x7564
    591e:	2065                	jal	59c6 <memcpy+0x80a>
    5920:	6f74                	.2byte	0x6f74
    5922:	7520                	.2byte	0x7520
    5924:	6b6e                	.2byte	0x6b6e
    5926:	6f6e                	.2byte	0x6f6e
    5928:	72206e77          	.4byte	0x72206e77
    592c:	6165                	addi	sp,sp,112
    592e:	0d6e6f73          	csrrsi	t5,0xd6,28
    5932:	0000                	unimp
    5934:	5044                	lw	s1,36(s0)
    5936:	4120                	lw	s0,64(a0)
    5938:	746c                	.2byte	0x746c
    593a:	6d2d                	lui	s10,0xb
    593c:	2065646f          	jal	s0,5bb42 <main.c.ab49d0c1+0x504da>
    5940:	7365                	lui	t1,0xffff9
    5942:	6174                	.2byte	0x6174
    5944:	6c62                	.2byte	0x6c62
    5946:	7369                	lui	t1,0xffffa
    5948:	6568                	.2byte	0x6568
    594a:	0d64                	addi	s1,sp,668
    594c:	0000                	unimp
    594e:	0000                	unimp
    5950:	6944                	.2byte	0x6944
    5952:	616c7073          	csrci	0x616,24
    5956:	5079                	c.li	zero,-2
    5958:	2074726f          	jal	tp,4d35e <main.c.ab49d0c1+0x41cf6>
    595c:	6f6e                	.2byte	0x6f6e
    595e:	2074                	lbu	a3,6(s0)
    5960:	6572                	.2byte	0x6572
    5962:	6461                	lui	s0,0x18
    5964:	2c79                	jal	5c02 <reason+0x1e>
    5966:	7720                	.2byte	0x7720
    5968:	6961                	lui	s2,0x18
    596a:	6974                	.2byte	0x6974
    596c:	676e                	.2byte	0x676e
    596e:	000d                	c.nop	3
    5970:	6550                	.2byte	0x6550
    5972:	6672                	.2byte	0x6672
    5974:	206d726f          	jal	tp,dcb7a <main.c.ab49d0c1+0xd1512>
    5978:	5044                	lw	s1,36(s0)
    597a:	4120                	lw	s0,64(a0)
    597c:	7875                	lui	a6,0xffffd
    597e:	4820                	lw	s0,80(s0)
    5980:	4450                	lw	a2,12(s0)
    5982:	6320                	.2byte	0x6320
    5984:	6379                	lui	t1,0x1e
    5986:	656c                	.2byte	0x656c
    5988:	000d                	c.nop	3
    598a:	0000                	unimp
    598c:	6f54                	.2byte	0x6f54
    598e:	656c6767          	.4byte	0x656c6767
    5992:	4420                	lw	s0,72(s0)
    5994:	2050                	lbu	a2,4(s0)
    5996:	4e474953          	.4byte	0x4e474953
    599a:	4c41                	li	s8,16
    599c:	2520                	lbu	s0,10(a0)
    599e:	000a0d73          	.4byte	0xa0d73
    59a2:	0000                	unimp
    59a4:	6f54                	.2byte	0x6f54
    59a6:	656c6767          	.4byte	0x656c6767
    59aa:	4420                	lw	s0,72(s0)
    59ac:	2050                	lbu	a2,4(s0)
    59ae:	554d                	li	a0,-13
    59b0:	2058                	lbu	a4,4(s0)
    59b2:	7325                	lui	t1,0xfffe9
    59b4:	0a0d                	addi	s4,s4,3
    59b6:	0000                	unimp
    59b8:	666e6f43          	.4byte	0x666e6f43
    59bc:	6769                	lui	a4,0x1a
    59be:	7275                	lui	tp,0xffffd
    59c0:	2065                	jal	5a68 <memcpy+0x8ac>
    59c2:	5044                	lw	s1,36(s0)
    59c4:	4c20                	lw	s0,88(s0)
    59c6:	6e69                	lui	t3,0x1a
    59c8:	00000d6b          	.4byte	0xd6b
    59cc:	7064                	.2byte	0x7064
    59ce:	735f 6e69 5f6b      	.byte	0x5f, 0x73, 0x69, 0x6e, 0x6b, 0x5f
    59d4:	3a706163          	bltu	zero,t2,5d76 <reason+0x192>
    59d8:	3020                	lbu	s0,3(s0)
    59da:	2578                	lbu	a4,14(a0)
    59dc:	3830                	lbu	a2,19(s0)
    59de:	0d78                	addi	a4,sp,668
    59e0:	000a                	c.slli	zero,0x2
    59e2:	0000                	unimp
    59e4:	5044                	lw	s1,36(s0)
    59e6:	4120                	lw	s0,64(a0)
    59e8:	5855                	li	a6,-11
    59ea:	5420                	lw	s0,104(s0)
    59ec:	6d69                	lui	s10,0x1a
    59ee:	6f65                	lui	t5,0x19
    59f0:	7475                	lui	s0,0xffffd
    59f2:	000d                	c.nop	3
    59f4:	72617453          	.4byte	0x72617453
    59f8:	2074                	lbu	a3,6(s0)
    59fa:	694c                	.2byte	0x694c
    59fc:	6b6e                	.2byte	0x6b6e
    59fe:	5420                	lw	s0,104(s0)
    5a00:	6172                	.2byte	0x6172
    5a02:	6e69                	lui	t3,0x1a
    5a04:	6e69                	lui	t3,0x1a
    5a06:	00000d67          	jalr	s10,zero # 0 <_sinit>
    5a0a:	0000                	unimp
    5a0c:	6150                	.2byte	0x6150
    5a0e:	7474                	.2byte	0x7474
    5a10:	7265                	lui	tp,0xffff9
    5a12:	206e                	lhu	a1,6(s0)
    5a14:	3a31                	jal	5330 <memcpy+0x174>
    5a16:	000d                	c.nop	3
    5a18:	65646f63          	bltu	s0,s6,6076 <_data_lma+0x2ea>
    5a1c:	203a                	lhu	a4,2(s0)
    5a1e:	7830                	.2byte	0x7830
    5a20:	3025                	jal	5248 <memcpy+0x8c>
    5a22:	7832                	.2byte	0x7832
    5a24:	0a0d                	addi	s4,s4,3
    5a26:	0000                	unimp
    5a28:	74617473          	csrrci	s0,0x746,2
    5a2c:	7375                	lui	t1,0xffffd
    5a2e:	203a                	lhu	a4,2(s0)
    5a30:	7830                	.2byte	0x7830
    5a32:	3025                	jal	525a <memcpy+0x9e>
    5a34:	7832                	.2byte	0x7832
    5a36:	0a0d                	addi	s4,s4,3
    5a38:	0000                	unimp
    5a3a:	0000                	unimp
    5a3c:	6150                	.2byte	0x6150
    5a3e:	7474                	.2byte	0x7474
    5a40:	7265                	lui	tp,0xffff9
    5a42:	206e                	lhu	a1,6(s0)
    5a44:	3a32                	lhu	a2,50(a2)
    5a46:	000d                	c.nop	3
    5a48:	6b6e6953          	.4byte	0x6b6e6953
    5a4c:	4c20                	lw	s0,88(s0)
    5a4e:	2054                	lbu	a3,4(s0)
    5a50:	74617453          	.4byte	0x74617453
    5a54:	7375                	lui	t1,0xffffd
    5a56:	0d3a                	slli	s10,s10,0xe
    5a58:	0000                	unimp
    5a5a:	0000                	unimp
    5a5c:	65646f63          	bltu	s0,s6,60ba <_data_lma+0x32e>
    5a60:	3a30                	lbu	a2,19(a2)
    5a62:	3020                	lbu	s0,3(s0)
    5a64:	2578                	lbu	a4,14(a0)
    5a66:	3830                	lbu	a2,19(s0)
    5a68:	0d78                	addi	a4,sp,668
    5a6a:	000a                	c.slli	zero,0x2
    5a6c:	65646f63          	bltu	s0,s6,60ca <_data_lma+0x33e>
    5a70:	3a31                	jal	538c <memcpy+0x1d0>
    5a72:	3020                	lbu	s0,3(s0)
    5a74:	2578                	lbu	a4,14(a0)
    5a76:	3830                	lbu	a2,19(s0)
    5a78:	0d78                	addi	a4,sp,668
    5a7a:	000a                	c.slli	zero,0x2
    5a7c:	6d70                	.2byte	0x6d70
    5a7e:	203a                	lhu	a4,2(s0)
    5a80:	3025                	jal	52a8 <memcpy+0xec>
    5a82:	7832                	.2byte	0x7832
    5a84:	0a0d                	addi	s4,s4,3
    5a86:	0000                	unimp
    5a88:	7064                	.2byte	0x7064
    5a8a:	735f 6e69 5f6b      	.byte	0x5f, 0x73, 0x69, 0x6e, 0x6b, 0x5f
    5a90:	7974                	.2byte	0x7974
    5a92:	6570                	.2byte	0x6570
    5a94:	203a                	lhu	a4,2(s0)
    5a96:	7830                	.2byte	0x7830
    5a98:	3025                	jal	52c0 <memcpy+0x104>
    5a9a:	7834                	.2byte	0x7834
    5a9c:	0a0d                	addi	s4,s4,3
    5a9e:	0000                	unimp
    5aa0:	4444                	lw	s1,12(s0)
    5aa2:	44452043          	.4byte	0x44452043
    5aa6:	4449                	li	s0,18
    5aa8:	4e20                	lw	s0,88(a2)
    5aaa:	4341                	li	t1,16
    5aac:	00000d4b          	.4byte	0xd4b
    5ab0:	4445                	li	s0,17
    5ab2:	4449                	li	s0,18
    5ab4:	003a                	c.slli	zero,0xe
    5ab6:	0000                	unimp
    5ab8:	0020                	addi	s0,sp,8
    5aba:	0000                	unimp
    5abc:	7325                	lui	t1,0xfffe9
    5abe:	3025                	jal	52e6 <memcpy+0x12a>
    5ac0:	7832                	.2byte	0x7832
    5ac2:	0000                	unimp
    5ac4:	6e45                	lui	t3,0x11
    5ac6:	6261                	lui	tp,0x18
    5ac8:	656c                	.2byte	0x656c
    5aca:	5420                	lw	s0,104(s0)
    5acc:	7365                	lui	t1,0xffff9
    5ace:	2074                	lbu	a3,6(s0)
    5ad0:	6f6c6f43          	.4byte	0x6f6c6f43
    5ad4:	2072                	lhu	a2,6(s0)
    5ad6:	63656843          	.4byte	0x63656843
    5ada:	2072656b          	.4byte	0x2072656b
    5ade:	7074754f          	.4byte	0x7074754f
    5ae2:	7475                	lui	s0,0xffffd
    5ae4:	000d                	c.nop	3
    5ae6:	0000                	unimp
    5ae8:	706d                	c.lui	zero,0xffffb
    5aea:	5f64                	lw	s1,124(a4)
    5aec:	3a737973          	csrrci	s2,0x3a7,6
    5af0:	3020                	lbu	s0,3(s0)
    5af2:	2578                	lbu	a4,14(a0)
    5af4:	3830                	lbu	a2,19(s0)
    5af6:	0d78                	addi	a4,sp,668
    5af8:	000a                	c.slli	zero,0x2
    5afa:	0000                	unimp
    5afc:	706d                	c.lui	zero,0xffffb
    5afe:	5f64                	lw	s1,124(a4)
    5b00:	7269                	lui	tp,0xffffa
    5b02:	3a71                	jal	549e <memcpy+0x2e2>
    5b04:	3020                	lbu	s0,3(s0)
    5b06:	2578                	lbu	a4,14(a0)
    5b08:	3830                	lbu	a2,19(s0)
    5b0a:	0d78                	addi	a4,sp,668
    5b0c:	000a                	c.slli	zero,0x2
    5b0e:	0000                	unimp
    5b10:	6e55                	lui	t3,0x15
    5b12:	7865                	lui	a6,0xffff9
    5b14:	6570                	.2byte	0x6570
    5b16:	64657463          	bgeu	a0,t1,615e <_data_lma+0x3d2>
    5b1a:	5020                	lw	s0,96(s0)
    5b1c:	2044                	lbu	s1,4(s0)
    5b1e:	4456                	lw	s0,84(sp)
    5b20:	204d                	jal	5bc2 <memcpy+0xa06>
    5b22:	5346                	lw	t1,112(sp)
    5b24:	004d                	c.nop	19
    5b26:	0000                	unimp
    5b28:	6e55                	lui	t3,0x15
    5b2a:	7865                	lui	a6,0xffff9
    5b2c:	6570                	.2byte	0x6570
    5b2e:	64657463          	bgeu	a0,t1,6176 <_data_lma+0x3ea>
    5b32:	5020                	lw	s0,96(s0)
    5b34:	2044                	lbu	s1,4(s0)
    5b36:	5346                	lw	t1,112(sp)
    5b38:	004d                	c.nop	19
    5b3a:	0000                	unimp
    5b3c:	2c24                	lbu	s1,26(s0)
    5b3e:	0000                	unimp
    5b40:	2be6                	lhu	s1,22(a5)
    5b42:	0000                	unimp
    5b44:	3232                	lhu	a2,34(a2)
    5b46:	0000                	unimp
    5b48:	3232                	lhu	a2,34(a2)
    5b4a:	0000                	unimp
    5b4c:	3232                	lhu	a2,34(a2)
    5b4e:	0000                	unimp
    5b50:	3232                	lhu	a2,34(a2)
    5b52:	0000                	unimp
    5b54:	3232                	lhu	a2,34(a2)
    5b56:	0000                	unimp
    5b58:	3232                	lhu	a2,34(a2)
    5b5a:	0000                	unimp
    5b5c:	3232                	lhu	a2,34(a2)
    5b5e:	0000                	unimp
    5b60:	3232                	lhu	a2,34(a2)
    5b62:	0000                	unimp
    5b64:	3232                	lhu	a2,34(a2)
    5b66:	0000                	unimp
    5b68:	2c38                	lbu	a4,26(s0)
    5b6a:	0000                	unimp
    5b6c:	2c9e                	lhu	a5,24(s1)
    5b6e:	0000                	unimp
    5b70:	3232                	lhu	a2,34(a2)
    5b72:	0000                	unimp
    5b74:	2c50                	lbu	a2,28(s0)
    5b76:	0000                	unimp
    5b78:	2bd2                	lhu	a2,20(a5)
    5b7a:	0000                	unimp
    5b7c:	3232                	lhu	a2,34(a2)
    5b7e:	0000                	unimp
    5b80:	3232                	lhu	a2,34(a2)
    5b82:	0000                	unimp
    5b84:	2b70                	lbu	a2,22(a4)
    5b86:	0000                	unimp
    5b88:	3232                	lhu	a2,34(a2)
    5b8a:	0000                	unimp
    5b8c:	3232                	lhu	a2,34(a2)
    5b8e:	0000                	unimp
    5b90:	3232                	lhu	a2,34(a2)
    5b92:	0000                	unimp
    5b94:	3232                	lhu	a2,34(a2)
    5b96:	0000                	unimp
    5b98:	3232                	lhu	a2,34(a2)
    5b9a:	0000                	unimp
    5b9c:	3232                	lhu	a2,34(a2)
    5b9e:	0000                	unimp
    5ba0:	3232                	lhu	a2,34(a2)
    5ba2:	0000                	unimp
    5ba4:	3232                	lhu	a2,34(a2)
    5ba6:	0000                	unimp
    5ba8:	3232                	lhu	a2,34(a2)
    5baa:	0000                	unimp
    5bac:	3232                	lhu	a2,34(a2)
    5bae:	0000                	unimp
    5bb0:	3232                	lhu	a2,34(a2)
    5bb2:	0000                	unimp
    5bb4:	3232                	lhu	a2,34(a2)
    5bb6:	0000                	unimp
    5bb8:	2ac2                	lhu	s0,20(a3)
    5bba:	0000                	unimp
    5bbc:	3232                	lhu	a2,34(a2)
    5bbe:	0000                	unimp
    5bc0:	2ad0                	lbu	a2,20(a3)
    5bc2:	0000                	unimp
    5bc4:	2f7a                	lhu	a4,30(a4)
    5bc6:	0000                	unimp
    5bc8:	2e88                	lbu	a0,24(a3)
    5bca:	0000                	unimp
    5bcc:	2dc4                	lbu	s1,28(a1)
    5bce:	0000                	unimp
    5bd0:	3060                	lbu	s0,7(s0)
    5bd2:	0000                	unimp
    5bd4:	2f92                	lhu	a2,24(a5)
    5bd6:	0000                	unimp
    5bd8:	3032                	lhu	a2,34(s0)
    5bda:	0000                	unimp
    5bdc:	2cf2                	lhu	a2,30(s1)
    5bde:	0000                	unimp
    5be0:	2f86                	lhu	s1,24(a5)
	...

00005be4 <reason>:
    5be4:	6e49 7473 7572 7463 6f69 206e 6461 7264     Instruction addr
    5bf4:	7365 2073 696d 6173 696c 6e67 6465 0000     ess misaligned..
    5c04:	6e49 7473 7572 7463 6f69 206e 6361 6563     Instruction acce
    5c14:	7373 6620 7561 746c 0000 0000 0000 0000     ss fault........
    5c24:	6c49 656c 6167 206c 6e69 7473 7572 7463     Illegal instruct
    5c34:	6f69 006e 0000 0000 0000 0000 0000 0000     ion.............
    5c44:	7242 6165 706b 696f 746e 0000 0000 0000     Breakpoint......
	...
    5c64:	6f4c 6461 6120 6464 6572 7373 6d20 7369     Load address mis
    5c74:	6c61 6769 656e 0064 0000 0000 0000 0000     aligned.........
    5c84:	6f4c 6461 6120 6363 7365 2073 6166 6c75     Load access faul
    5c94:	0074 0000 0000 0000 0000 0000 0000 0000     t...............
    5ca4:	7453 726f 2f65 4d41 204f 6461 7264 7365     Store/AMO addres
    5cb4:	2073 696d 6173 696c 6e67 6465 0000 0000     s misaligned....
    5cc4:	7453 726f 2f65 4d41 204f 6361 6563 7373     Store/AMO access
    5cd4:	6620 7561 746c 0000 0000 0000 0000 0000      fault..........
    5ce4:	6e45 6976 6f72 6d6e 6e65 2074 6163 6c6c     Environment call
    5cf4:	6620 6f72 206d 2d55 6f6d 6564 0000 0000      from U-mode....
    5d04:	6e45 6976 6f72 6d6e 6e65 2074 6163 6c6c     Environment call
    5d14:	6620 6f72 206d 2d48 6f6d 6564 0000 0000      from H-mode....
    5d24:	6e45 6976 6f72 6d6e 6e65 2074 6163 6c6c     Environment call
    5d34:	6620 6f72 206d 2d53 6f6d 6564 0000 0000      from S-mode....
    5d44:	6e45 6976 6f72 6d6e 6e65 2074 6163 6c6c     Environment call
    5d54:	6620 6f72 206d 2d4d 6f6d 6564 0000 0000      from M-mode....
    5d64:	6e55 6e6b 776f 006e 0000 0000 0000 0000     Unknown.........
	...
    5d84:	6e28 6c75 296c 0000                         (null)..
